
build\GPS_Receiver_uno.elf:     file format elf32-avr

Sections:
Idx Name          Size      VMA       LMA       File off  Algn
  0 .data         00000088  00800100  00002dba  00002e4e  2**0
                  CONTENTS, ALLOC, LOAD, DATA
  1 .text         00002dba  00000000  00000000  00000094  2**1
                  CONTENTS, ALLOC, LOAD, READONLY, CODE
  2 .bss          00000340  00800188  00800188  00002ed6  2**0
                  ALLOC

Disassembly of section .text:

00000000 <.text>:
       0:	0c 94 6a 04 	jmp	0x8d4	;  0x8d4
       4:	0c 94 92 04 	jmp	0x924	;  0x924
       8:	0c 94 92 04 	jmp	0x924	;  0x924
       c:	0c 94 92 04 	jmp	0x924	;  0x924
      10:	0c 94 92 04 	jmp	0x924	;  0x924
      14:	0c 94 92 04 	jmp	0x924	;  0x924
      18:	0c 94 92 04 	jmp	0x924	;  0x924
      1c:	0c 94 92 04 	jmp	0x924	;  0x924
      20:	0c 94 92 04 	jmp	0x924	;  0x924
      24:	0c 94 92 04 	jmp	0x924	;  0x924
      28:	0c 94 92 04 	jmp	0x924	;  0x924
      2c:	0c 94 92 04 	jmp	0x924	;  0x924
      30:	0c 94 92 04 	jmp	0x924	;  0x924
      34:	0c 94 92 04 	jmp	0x924	;  0x924
      38:	0c 94 92 04 	jmp	0x924	;  0x924
      3c:	0c 94 92 04 	jmp	0x924	;  0x924
      40:	0c 94 99 13 	jmp	0x2732	;  0x2732
      44:	0c 94 92 04 	jmp	0x924	;  0x924
      48:	0c 94 50 11 	jmp	0x22a0	;  0x22a0
      4c:	0c 94 9e 11 	jmp	0x233c	;  0x233c
      50:	0c 94 92 04 	jmp	0x924	;  0x924
      54:	0c 94 92 04 	jmp	0x924	;  0x924
      58:	0c 94 92 04 	jmp	0x924	;  0x924
      5c:	0c 94 92 04 	jmp	0x924	;  0x924
      60:	0c 94 92 04 	jmp	0x924	;  0x924
      64:	0c 94 92 04 	jmp	0x924	;  0x924
      68:	51 0c       	add	r5, r1
      6a:	65 0c       	add	r6, r5
      6c:	75 0c       	add	r7, r5
      6e:	88 0c       	add	r8, r8
      70:	90 0c       	add	r9, r0
      72:	de 0c       	add	r13, r14
      74:	e7 0c       	add	r14, r7
      76:	f2 0c       	add	r15, r2
      78:	fa 0c       	add	r15, r10
      7a:	01 0d       	add	r16, r1
      7c:	01 0d       	add	r16, r1
      7e:	01 0d       	add	r16, r1
      80:	01 0d       	add	r16, r1
      82:	01 0d       	add	r16, r1
      84:	01 0d       	add	r16, r1
      86:	01 0d       	add	r16, r1
      88:	01 0d       	add	r16, r1
      8a:	01 0d       	add	r16, r1
      8c:	01 0d       	add	r16, r1
      8e:	01 0d       	add	r16, r1
      90:	01 0d       	add	r16, r1
      92:	01 0d       	add	r16, r1
      94:	01 0d       	add	r16, r1
      96:	01 0d       	add	r16, r1
      98:	01 0d       	add	r16, r1
      9a:	01 0d       	add	r16, r1
      9c:	01 0d       	add	r16, r1
      9e:	01 0d       	add	r16, r1
      a0:	01 0d       	add	r16, r1
      a2:	01 0d       	add	r16, r1
      a4:	01 0d       	add	r16, r1
      a6:	01 0d       	add	r16, r1
      a8:	51 0c       	add	r5, r1
      aa:	5d 0c       	add	r5, r13
      ac:	65 0c       	add	r6, r5
      ae:	75 0c       	add	r7, r5
      b0:	88 0c       	add	r8, r8
      b2:	90 0c       	add	r9, r0
      b4:	a3 0c       	add	r10, r3
      b6:	ab 0c       	add	r10, r11
      b8:	b3 0c       	add	r11, r3
      ba:	06 08       	sbc	r0, r6
      bc:	20 5f       	subi	r18, 0xF0	; 240
	...
      c6:	00 2f       	mov	r16, r16
      c8:	00 00       	nop
      ca:	00 00       	nop
      cc:	07 00       	.word	0x0007	; ????
      ce:	07 00       	.word	0x0007	; ????
      d0:	00 14       	cp	r0, r0
      d2:	7f 14       	cp	r7, r15
      d4:	7f 14       	cp	r7, r15
      d6:	00 24       	eor	r0, r0
      d8:	2a 7f       	andi	r18, 0xFA	; 250
      da:	2a 12       	cpse	r2, r26
      dc:	00 23       	and	r16, r16
      de:	13 08       	sbc	r1, r3
      e0:	64 62       	ori	r22, 0x24	; 36
      e2:	00 36       	cpi	r16, 0x60	; 96
      e4:	49 55       	subi	r20, 0x59	; 89
      e6:	22 50       	subi	r18, 0x02	; 2
      e8:	00 00       	nop
      ea:	05 03       	mulsu	r16, r21
      ec:	00 00       	nop
      ee:	00 00       	nop
      f0:	1c 22       	and	r1, r28
      f2:	41 00       	.word	0x0041	; ????
      f4:	00 00       	nop
      f6:	41 22       	and	r4, r17
      f8:	1c 00       	.word	0x001c	; ????
      fa:	00 14       	cp	r0, r0
      fc:	08 3e       	cpi	r16, 0xE8	; 232
      fe:	08 14       	cp	r0, r8
     100:	00 08       	sbc	r0, r0
     102:	08 3e       	cpi	r16, 0xE8	; 232
     104:	08 08       	sbc	r0, r8
     106:	00 00       	nop
     108:	00 a0       	ldd	r0, Z+32	; 0x20
     10a:	60 00       	.word	0x0060	; ????
     10c:	00 08       	sbc	r0, r0
     10e:	08 08       	sbc	r0, r8
     110:	08 08       	sbc	r0, r8
     112:	00 00       	nop
     114:	60 60       	ori	r22, 0x00	; 0
     116:	00 00       	nop
     118:	00 20       	and	r0, r0
     11a:	10 08       	sbc	r1, r0
     11c:	04 02       	muls	r16, r20
     11e:	00 3e       	cpi	r16, 0xE0	; 224
     120:	51 49       	sbci	r21, 0x91	; 145
     122:	45 3e       	cpi	r20, 0xE5	; 229
     124:	00 00       	nop
     126:	42 7f       	andi	r20, 0xF2	; 242
     128:	40 00       	.word	0x0040	; ????
     12a:	00 42       	sbci	r16, 0x20	; 32
     12c:	61 51       	subi	r22, 0x11	; 17
     12e:	49 46       	sbci	r20, 0x69	; 105
     130:	00 21       	and	r16, r0
     132:	41 45       	sbci	r20, 0x51	; 81
     134:	4b 31       	cpi	r20, 0x1B	; 27
     136:	00 18       	sub	r0, r0
     138:	14 12       	cpse	r1, r20
     13a:	7f 10       	cpse	r7, r15
     13c:	00 27       	eor	r16, r16
     13e:	45 45       	sbci	r20, 0x55	; 85
     140:	45 39       	cpi	r20, 0x95	; 149
     142:	00 3c       	cpi	r16, 0xC0	; 192
     144:	4a 49       	sbci	r20, 0x9A	; 154
     146:	49 30       	cpi	r20, 0x09	; 9
     148:	00 01       	movw	r0, r0
     14a:	71 09       	sbc	r23, r1
     14c:	05 03       	mulsu	r16, r21
     14e:	00 36       	cpi	r16, 0x60	; 96
     150:	49 49       	sbci	r20, 0x99	; 153
     152:	49 36       	cpi	r20, 0x69	; 105
     154:	00 06       	cpc	r0, r16
     156:	49 49       	sbci	r20, 0x99	; 153
     158:	29 1e       	adc	r2, r25
     15a:	00 00       	nop
     15c:	36 36       	cpi	r19, 0x66	; 102
     15e:	00 00       	nop
     160:	00 00       	nop
     162:	56 36       	cpi	r21, 0x66	; 102
     164:	00 00       	nop
     166:	00 08       	sbc	r0, r0
     168:	14 22       	and	r1, r20
     16a:	41 00       	.word	0x0041	; ????
     16c:	00 14       	cp	r0, r0
     16e:	14 14       	cp	r1, r4
     170:	14 14       	cp	r1, r4
     172:	00 00       	nop
     174:	41 22       	and	r4, r17
     176:	14 08       	sbc	r1, r4
     178:	00 02       	muls	r16, r16
     17a:	01 51       	subi	r16, 0x11	; 17
     17c:	09 06       	cpc	r0, r25
     17e:	00 32       	cpi	r16, 0x20	; 32
     180:	49 59       	subi	r20, 0x99	; 153
     182:	51 3e       	cpi	r21, 0xE1	; 225
     184:	00 7c       	andi	r16, 0xC0	; 192
     186:	12 11       	cpse	r17, r2
     188:	12 7c       	andi	r17, 0xC2	; 194
     18a:	00 7f       	andi	r16, 0xF0	; 240
     18c:	49 49       	sbci	r20, 0x99	; 153
     18e:	49 36       	cpi	r20, 0x69	; 105
     190:	00 3e       	cpi	r16, 0xE0	; 224
     192:	41 41       	sbci	r20, 0x11	; 17
     194:	41 22       	and	r4, r17
     196:	00 7f       	andi	r16, 0xF0	; 240
     198:	41 41       	sbci	r20, 0x11	; 17
     19a:	22 1c       	adc	r2, r2
     19c:	00 7f       	andi	r16, 0xF0	; 240
     19e:	49 49       	sbci	r20, 0x99	; 153
     1a0:	49 41       	sbci	r20, 0x19	; 25
     1a2:	00 7f       	andi	r16, 0xF0	; 240
     1a4:	09 09       	sbc	r16, r9
     1a6:	09 01       	movw	r0, r18
     1a8:	00 3e       	cpi	r16, 0xE0	; 224
     1aa:	41 49       	sbci	r20, 0x91	; 145
     1ac:	49 7a       	andi	r20, 0xA9	; 169
     1ae:	00 7f       	andi	r16, 0xF0	; 240
     1b0:	08 08       	sbc	r0, r8
     1b2:	08 7f       	andi	r16, 0xF8	; 248
     1b4:	00 00       	nop
     1b6:	41 7f       	andi	r20, 0xF1	; 241
     1b8:	41 00       	.word	0x0041	; ????
     1ba:	00 20       	and	r0, r0
     1bc:	40 41       	sbci	r20, 0x10	; 16
     1be:	3f 01       	movw	r6, r30
     1c0:	00 7f       	andi	r16, 0xF0	; 240
     1c2:	08 14       	cp	r0, r8
     1c4:	22 41       	sbci	r18, 0x12	; 18
     1c6:	00 7f       	andi	r16, 0xF0	; 240
     1c8:	40 40       	sbci	r20, 0x00	; 0
     1ca:	40 40       	sbci	r20, 0x00	; 0
     1cc:	00 7f       	andi	r16, 0xF0	; 240
     1ce:	02 0c       	add	r0, r2
     1d0:	02 7f       	andi	r16, 0xF2	; 242
     1d2:	00 7f       	andi	r16, 0xF0	; 240
     1d4:	04 08       	sbc	r0, r4
     1d6:	10 7f       	andi	r17, 0xF0	; 240
     1d8:	00 3e       	cpi	r16, 0xE0	; 224
     1da:	41 41       	sbci	r20, 0x11	; 17
     1dc:	41 3e       	cpi	r20, 0xE1	; 225
     1de:	00 7f       	andi	r16, 0xF0	; 240
     1e0:	09 09       	sbc	r16, r9
     1e2:	09 06       	cpc	r0, r25
     1e4:	00 3e       	cpi	r16, 0xE0	; 224
     1e6:	41 51       	subi	r20, 0x11	; 17
     1e8:	21 5e       	subi	r18, 0xE1	; 225
     1ea:	00 7f       	andi	r16, 0xF0	; 240
     1ec:	09 19       	sub	r16, r9
     1ee:	29 46       	sbci	r18, 0x69	; 105
     1f0:	00 46       	sbci	r16, 0x60	; 96
     1f2:	49 49       	sbci	r20, 0x99	; 153
     1f4:	49 31       	cpi	r20, 0x19	; 25
     1f6:	00 01       	movw	r0, r0
     1f8:	01 7f       	andi	r16, 0xF1	; 241
     1fa:	01 01       	movw	r0, r2
     1fc:	00 3f       	cpi	r16, 0xF0	; 240
     1fe:	40 40       	sbci	r20, 0x00	; 0
     200:	40 3f       	cpi	r20, 0xF0	; 240
     202:	00 1f       	adc	r16, r16
     204:	20 40       	sbci	r18, 0x00	; 0
     206:	20 1f       	adc	r18, r16
     208:	00 3f       	cpi	r16, 0xF0	; 240
     20a:	40 38       	cpi	r20, 0x80	; 128
     20c:	40 3f       	cpi	r20, 0xF0	; 240
     20e:	00 63       	ori	r16, 0x30	; 48
     210:	14 08       	sbc	r1, r4
     212:	14 63       	ori	r17, 0x34	; 52
     214:	00 07       	cpc	r16, r16
     216:	08 70       	andi	r16, 0x08	; 8
     218:	08 07       	cpc	r16, r24
     21a:	00 61       	ori	r16, 0x10	; 16
     21c:	51 49       	sbci	r21, 0x91	; 145
     21e:	45 43       	sbci	r20, 0x35	; 53
     220:	00 00       	nop
     222:	7f 41       	sbci	r23, 0x1F	; 31
     224:	41 00       	.word	0x0041	; ????
     226:	aa 55       	subi	r26, 0x5A	; 90
     228:	aa 55       	subi	r26, 0x5A	; 90
     22a:	aa 55       	subi	r26, 0x5A	; 90
     22c:	00 00       	nop
     22e:	41 41       	sbci	r20, 0x11	; 17
     230:	7f 00       	.word	0x007f	; ????
     232:	00 04       	cpc	r0, r0
     234:	02 01       	movw	r0, r4
     236:	02 04       	cpc	r0, r2
     238:	00 40       	sbci	r16, 0x00	; 0
     23a:	40 40       	sbci	r20, 0x00	; 0
     23c:	40 40       	sbci	r20, 0x00	; 0
     23e:	00 00       	nop
     240:	03 05       	cpc	r16, r3
     242:	00 00       	nop
     244:	00 20       	and	r0, r0
     246:	54 54       	subi	r21, 0x44	; 68
     248:	54 78       	andi	r21, 0x84	; 132
     24a:	00 7f       	andi	r16, 0xF0	; 240
     24c:	48 44       	sbci	r20, 0x48	; 72
     24e:	44 38       	cpi	r20, 0x84	; 132
     250:	00 38       	cpi	r16, 0x80	; 128
     252:	44 44       	sbci	r20, 0x44	; 68
     254:	44 20       	and	r4, r4
     256:	00 38       	cpi	r16, 0x80	; 128
     258:	44 44       	sbci	r20, 0x44	; 68
     25a:	48 7f       	andi	r20, 0xF8	; 248
     25c:	00 38       	cpi	r16, 0x80	; 128
     25e:	54 54       	subi	r21, 0x44	; 68
     260:	54 18       	sub	r5, r4
     262:	00 08       	sbc	r0, r0
     264:	7e 09       	sbc	r23, r14
     266:	01 02       	muls	r16, r17
     268:	00 18       	sub	r0, r0
     26a:	a4 a4       	ldd	r10, Z+44	; 0x2c
     26c:	a4 7c       	andi	r26, 0xC4	; 196
     26e:	00 7f       	andi	r16, 0xF0	; 240
     270:	08 04       	cpc	r0, r8
     272:	04 78       	andi	r16, 0x84	; 132
     274:	00 00       	nop
     276:	44 7d       	andi	r20, 0xD4	; 212
     278:	40 00       	.word	0x0040	; ????
     27a:	00 40       	sbci	r16, 0x00	; 0
     27c:	80 84       	ldd	r8, Z+8	; 0x08
     27e:	7d 00       	.word	0x007d	; ????
     280:	00 7f       	andi	r16, 0xF0	; 240
     282:	10 28       	or	r1, r0
     284:	44 00       	.word	0x0044	; ????
     286:	00 00       	nop
     288:	41 7f       	andi	r20, 0xF1	; 241
     28a:	40 00       	.word	0x0040	; ????
     28c:	00 7c       	andi	r16, 0xC0	; 192
     28e:	04 18       	sub	r0, r4
     290:	04 78       	andi	r16, 0x84	; 132
     292:	00 7c       	andi	r16, 0xC0	; 192
     294:	08 04       	cpc	r0, r8
     296:	04 78       	andi	r16, 0x84	; 132
     298:	00 38       	cpi	r16, 0x80	; 128
     29a:	44 44       	sbci	r20, 0x44	; 68
     29c:	44 38       	cpi	r20, 0x84	; 132
     29e:	00 fc       	sbrc	r0, 0
     2a0:	24 24       	eor	r2, r4
     2a2:	24 18       	sub	r2, r4
     2a4:	00 18       	sub	r0, r0
     2a6:	24 24       	eor	r2, r4
     2a8:	18 fc       	.word	0xfc18	; ????
     2aa:	00 7c       	andi	r16, 0xC0	; 192
     2ac:	08 04       	cpc	r0, r8
     2ae:	04 08       	sbc	r0, r4
     2b0:	00 48       	sbci	r16, 0x80	; 128
     2b2:	54 54       	subi	r21, 0x44	; 68
     2b4:	54 20       	and	r5, r4
     2b6:	00 04       	cpc	r0, r0
     2b8:	3f 44       	sbci	r19, 0x4F	; 79
     2ba:	40 20       	and	r4, r0
     2bc:	00 3c       	cpi	r16, 0xC0	; 192
     2be:	40 40       	sbci	r20, 0x00	; 0
     2c0:	20 7c       	andi	r18, 0xC0	; 192
     2c2:	00 1c       	adc	r0, r0
     2c4:	20 40       	sbci	r18, 0x00	; 0
     2c6:	20 1c       	adc	r2, r0
     2c8:	00 3c       	cpi	r16, 0xC0	; 192
     2ca:	40 30       	cpi	r20, 0x00	; 0
     2cc:	40 3c       	cpi	r20, 0xC0	; 192
     2ce:	00 44       	sbci	r16, 0x40	; 64
     2d0:	28 10       	cpse	r2, r8
     2d2:	28 44       	sbci	r18, 0x48	; 72
     2d4:	00 1c       	adc	r0, r0
     2d6:	a0 a0       	ldd	r10, Z+32	; 0x20
     2d8:	a0 7c       	andi	r26, 0xC0	; 192
     2da:	00 44       	sbci	r16, 0x40	; 64
     2dc:	64 54       	subi	r22, 0x44	; 68
     2de:	4c 44       	sbci	r20, 0x4C	; 76
     2e0:	00 00       	nop
     2e2:	10 7c       	andi	r17, 0xC0	; 192
     2e4:	82 00       	.word	0x0082	; ????
     2e6:	00 00       	nop
     2e8:	00 ff       	sbrs	r16, 0
     2ea:	00 00       	nop
     2ec:	00 00       	nop
     2ee:	82 7c       	andi	r24, 0xC2	; 194
     2f0:	10 00       	.word	0x0010	; ????
     2f2:	00 00       	nop
     2f4:	06 09       	sbc	r16, r6
     2f6:	09 06       	cpc	r0, r25
     2f8:	0c 10       	cpse	r0, r12
     2fa:	2d 0d       	add	r18, r13
     2fc:	00 00       	nop
     2fe:	00 80       	ld	r0, Z
     300:	80 80       	ld	r8, Z
     302:	80 80       	ld	r8, Z
     304:	80 00       	.word	0x0080	; ????
     306:	00 00       	nop
     308:	00 00       	nop
     30a:	01 03       	mulsu	r16, r17
     30c:	03 03       	mulsu	r16, r19
     30e:	03 03       	mulsu	r16, r19
     310:	03 01       	movw	r0, r6
	...
     322:	00 00       	nop
     324:	00 c0       	rjmp	.+0      	;  0x326
     326:	c0 00       	.word	0x00c0	; ????
     328:	00 00       	nop
     32a:	00 00       	nop
     32c:	00 00       	nop
     32e:	02 86       	std	Z+10, r0	; 0x0a
     330:	86 86       	std	Z+14, r8	; 0x0e
     332:	86 86       	std	Z+14, r8	; 0x0e
     334:	86 02       	muls	r24, r22
     336:	00 00       	nop
     338:	00 00       	nop
     33a:	81 c3       	rjmp	.+1794   	;  0xa3e
     33c:	c3 c3       	rjmp	.+1926   	;  0xac4
     33e:	c3 c3       	rjmp	.+1926   	;  0xac6
     340:	c3 81       	ldd	r28, Z+3	; 0x03
     342:	00 00       	nop
     344:	00 fc       	sbrc	r0, 0
     346:	7a 06       	cpc	r7, r26
     348:	06 06       	cpc	r0, r22
     34a:	06 06       	cpc	r0, r22
     34c:	06 7a       	andi	r16, 0xA6	; 166
     34e:	fc 00       	.word	0x00fc	; ????
     350:	00 7e       	andi	r16, 0xE0	; 224
     352:	bc c0       	rjmp	.+376    	;  0x4cc
     354:	c0 c0       	rjmp	.+384    	;  0x4d6
     356:	c0 c0       	rjmp	.+384    	;  0x4d8
     358:	c0 bc       	out	0x20, r12	; 32
     35a:	7e 00       	.word	0x007e	; ????
	...
     364:	00 78       	andi	r16, 0x80	; 128
     366:	fc 00       	.word	0x00fc	; ????
	...
     370:	00 3c       	cpi	r16, 0xC0	; 192
     372:	7e 00       	.word	0x007e	; ????
     374:	00 00       	nop
     376:	02 86       	std	Z+10, r0	; 0x0a
     378:	86 86       	std	Z+14, r8	; 0x0e
     37a:	86 86       	std	Z+14, r8	; 0x0e
     37c:	86 7a       	andi	r24, 0xA6	; 166
     37e:	fc 00       	.word	0x00fc	; ????
     380:	00 7e       	andi	r16, 0xE0	; 224
     382:	bd c3       	rjmp	.+1914   	;  0xafe
     384:	c3 c3       	rjmp	.+1926   	;  0xb0c
     386:	c3 c3       	rjmp	.+1926   	;  0xb0e
     388:	c3 81       	ldd	r28, Z+3	; 0x03
     38a:	00 00       	nop
     38c:	00 00       	nop
     38e:	02 86       	std	Z+10, r0	; 0x0a
     390:	86 86       	std	Z+14, r8	; 0x0e
     392:	86 86       	std	Z+14, r8	; 0x0e
     394:	86 7a       	andi	r24, 0xA6	; 166
     396:	fc 00       	.word	0x00fc	; ????
     398:	00 00       	nop
     39a:	81 c3       	rjmp	.+1794   	;  0xa9e
     39c:	c3 c3       	rjmp	.+1926   	;  0xb24
     39e:	c3 c3       	rjmp	.+1926   	;  0xb26
     3a0:	c3 bd       	out	0x23, r28	; 35
     3a2:	7e 00       	.word	0x007e	; ????
     3a4:	00 fc       	sbrc	r0, 0
     3a6:	78 80       	ld	r7, Y
     3a8:	80 80       	ld	r8, Z
     3aa:	80 80       	ld	r8, Z
     3ac:	80 78       	andi	r24, 0x80	; 128
     3ae:	fc 00       	.word	0x00fc	; ????
     3b0:	00 00       	nop
     3b2:	01 03       	mulsu	r16, r17
     3b4:	03 03       	mulsu	r16, r19
     3b6:	03 03       	mulsu	r16, r19
     3b8:	03 3d       	cpi	r16, 0xD3	; 211
     3ba:	7e 00       	.word	0x007e	; ????
     3bc:	00 fc       	sbrc	r0, 0
     3be:	7a 86       	std	Y+10, r7	; 0x0a
     3c0:	86 86       	std	Z+14, r8	; 0x0e
     3c2:	86 86       	std	Z+14, r8	; 0x0e
     3c4:	86 02       	muls	r24, r22
     3c6:	00 00       	nop
     3c8:	00 00       	nop
     3ca:	81 c3       	rjmp	.+1794   	;  0xace
     3cc:	c3 c3       	rjmp	.+1926   	;  0xb54
     3ce:	c3 c3       	rjmp	.+1926   	;  0xb56
     3d0:	c3 bd       	out	0x23, r28	; 35
     3d2:	7e 00       	.word	0x007e	; ????
     3d4:	00 fc       	sbrc	r0, 0
     3d6:	7a 86       	std	Y+10, r7	; 0x0a
     3d8:	86 86       	std	Z+14, r8	; 0x0e
     3da:	86 86       	std	Z+14, r8	; 0x0e
     3dc:	86 02       	muls	r24, r22
     3de:	00 00       	nop
     3e0:	00 7e       	andi	r16, 0xE0	; 224
     3e2:	bd c3       	rjmp	.+1914   	;  0xb5e
     3e4:	c3 c3       	rjmp	.+1926   	;  0xb6c
     3e6:	c3 c3       	rjmp	.+1926   	;  0xb6e
     3e8:	c3 bd       	out	0x23, r28	; 35
     3ea:	7e 00       	.word	0x007e	; ????
     3ec:	00 00       	nop
     3ee:	02 06       	cpc	r0, r18
     3f0:	06 06       	cpc	r0, r22
     3f2:	06 06       	cpc	r0, r22
     3f4:	06 7a       	andi	r16, 0xA6	; 166
     3f6:	fc 00       	.word	0x00fc	; ????
	...
     400:	00 3c       	cpi	r16, 0xC0	; 192
     402:	7e 00       	.word	0x007e	; ????
     404:	00 fc       	sbrc	r0, 0
     406:	7a 86       	std	Y+10, r7	; 0x0a
     408:	86 86       	std	Z+14, r8	; 0x0e
     40a:	86 86       	std	Z+14, r8	; 0x0e
     40c:	86 7a       	andi	r24, 0xA6	; 166
     40e:	fc 00       	.word	0x00fc	; ????
     410:	00 7e       	andi	r16, 0xE0	; 224
     412:	bd c3       	rjmp	.+1914   	;  0xb8e
     414:	c3 c3       	rjmp	.+1926   	;  0xb9c
     416:	c3 c3       	rjmp	.+1926   	;  0xb9e
     418:	c3 bd       	out	0x23, r28	; 35
     41a:	7e 00       	.word	0x007e	; ????
     41c:	00 fc       	sbrc	r0, 0
     41e:	7a 86       	std	Y+10, r7	; 0x0a
     420:	86 86       	std	Z+14, r8	; 0x0e
     422:	86 86       	std	Z+14, r8	; 0x0e
     424:	86 7a       	andi	r24, 0xA6	; 166
     426:	fc 00       	.word	0x00fc	; ????
     428:	00 00       	nop
     42a:	81 c3       	rjmp	.+1794   	;  0xb2e
     42c:	c3 c3       	rjmp	.+1926   	;  0xbb4
     42e:	c3 c3       	rjmp	.+1926   	;  0xbb6
     430:	c3 bd       	out	0x23, r28	; 35
     432:	7e 00       	.word	0x007e	; ????
     434:	0e 18       	sub	r0, r14
     436:	2d 0d       	add	r18, r13
	...
     448:	10 38       	cpi	r17, 0x80	; 128
     44a:	38 38       	cpi	r19, 0x88	; 136
     44c:	38 38       	cpi	r19, 0x88	; 136
     44e:	38 38       	cpi	r19, 0x88	; 136
     450:	38 10       	cpse	r3, r8
	...
     482:	00 40       	sbci	r16, 0x00	; 0
     484:	e0 e0       	ldi	r30, 0x00	; 0
     486:	40 00       	.word	0x0040	; ????
     488:	00 00       	nop
     48a:	00 00       	nop
     48c:	00 00       	nop
     48e:	02 06       	cpc	r0, r18
     490:	0e 0e       	add	r0, r30
     492:	0e 0e       	add	r0, r30
     494:	0e 0e       	add	r0, r30
     496:	06 02       	muls	r16, r22
     498:	00 00       	nop
     49a:	00 00       	nop
     49c:	10 38       	cpi	r17, 0x80	; 128
     49e:	38 38       	cpi	r19, 0x88	; 136
     4a0:	38 38       	cpi	r19, 0x88	; 136
     4a2:	38 38       	cpi	r19, 0x88	; 136
     4a4:	38 10       	cpse	r3, r8
     4a6:	00 00       	nop
     4a8:	00 00       	nop
     4aa:	80 c0       	rjmp	.+256    	;  0x5ac
     4ac:	e0 e0       	ldi	r30, 0x00	; 0
     4ae:	e0 e0       	ldi	r30, 0x00	; 0
     4b0:	e0 e0       	ldi	r30, 0x00	; 0
     4b2:	c0 80       	ld	r12, Z
     4b4:	00 00       	nop
     4b6:	00 fc       	sbrc	r0, 0
     4b8:	fa f6       	brpl	.-66     	;  0x478
     4ba:	0e 0e       	add	r0, r30
     4bc:	0e 0e       	add	r0, r30
     4be:	0e 0e       	add	r0, r30
     4c0:	f6 fa       	bst	r15, 6
     4c2:	fc 00       	.word	0x00fc	; ????
     4c4:	00 ef       	ldi	r16, 0xF0	; 240
     4c6:	c7 83       	std	Z+7, r28	; 0x07
     4c8:	00 00       	nop
     4ca:	00 00       	nop
     4cc:	00 00       	nop
     4ce:	83 c7       	rjmp	.+3846   	;  0x13d6
     4d0:	ef 00       	.word	0x00ef	; ????
     4d2:	00 7f       	andi	r16, 0xF0	; 240
     4d4:	bf df       	rcall	.-130    	;  0x454
     4d6:	e0 e0       	ldi	r30, 0x00	; 0
     4d8:	e0 e0       	ldi	r30, 0x00	; 0
     4da:	e0 e0       	ldi	r30, 0x00	; 0
     4dc:	df bf       	out	0x3f, r29	; 63
     4de:	7f 00       	.word	0x007f	; ????
	...
     4e8:	00 00       	nop
     4ea:	f0 f8       	bld	r15, 0
     4ec:	fc 00       	.word	0x00fc	; ????
	...
     4f6:	00 00       	nop
     4f8:	83 c7       	rjmp	.+3846   	;  0x1400
     4fa:	ef 00       	.word	0x00ef	; ????
	...
     504:	00 00       	nop
     506:	1f 3f       	cpi	r17, 0xFF	; 255
     508:	7f 00       	.word	0x007f	; ????
     50a:	00 00       	nop
     50c:	02 06       	cpc	r0, r18
     50e:	0e 0e       	add	r0, r30
     510:	0e 0e       	add	r0, r30
     512:	0e 0e       	add	r0, r30
     514:	f6 fa       	bst	r15, 6
     516:	fc 00       	.word	0x00fc	; ????
     518:	00 e0       	ldi	r16, 0x00	; 0
     51a:	d0 b8       	out	0x00, r13	; 0
     51c:	38 38       	cpi	r19, 0x88	; 136
     51e:	38 38       	cpi	r19, 0x88	; 136
     520:	38 38       	cpi	r19, 0x88	; 136
     522:	3b 17       	cp	r19, r27
     524:	0f 00       	.word	0x000f	; ????
     526:	00 7f       	andi	r16, 0xF0	; 240
     528:	bf df       	rcall	.-130    	;  0x4a8
     52a:	e0 e0       	ldi	r30, 0x00	; 0
     52c:	e0 e0       	ldi	r30, 0x00	; 0
     52e:	e0 e0       	ldi	r30, 0x00	; 0
     530:	c0 80       	ld	r12, Z
     532:	00 00       	nop
     534:	00 00       	nop
     536:	02 06       	cpc	r0, r18
     538:	0e 0e       	add	r0, r30
     53a:	0e 0e       	add	r0, r30
     53c:	0e 0e       	add	r0, r30
     53e:	f6 fa       	bst	r15, 6
     540:	fc 00       	.word	0x00fc	; ????
     542:	00 00       	nop
     544:	10 38       	cpi	r17, 0x80	; 128
     546:	38 38       	cpi	r19, 0x88	; 136
     548:	38 38       	cpi	r19, 0x88	; 136
     54a:	38 38       	cpi	r19, 0x88	; 136
     54c:	bb d7       	rcall	.+3958   	;  0x14c4
     54e:	ef 00       	.word	0x00ef	; ????
     550:	00 00       	nop
     552:	80 c0       	rjmp	.+256    	;  0x654
     554:	e0 e0       	ldi	r30, 0x00	; 0
     556:	e0 e0       	ldi	r30, 0x00	; 0
     558:	e0 e0       	ldi	r30, 0x00	; 0
     55a:	df bf       	out	0x3f, r29	; 63
     55c:	7f 00       	.word	0x007f	; ????
     55e:	00 fc       	sbrc	r0, 0
     560:	f8 f0       	brcs	.+62     	;  0x5a0
     562:	00 00       	nop
     564:	00 00       	nop
     566:	00 00       	nop
     568:	f0 f8       	bld	r15, 0
     56a:	fc 00       	.word	0x00fc	; ????
     56c:	00 0f       	add	r16, r16
     56e:	17 3b       	cpi	r17, 0xB7	; 183
     570:	38 38       	cpi	r19, 0x88	; 136
     572:	38 38       	cpi	r19, 0x88	; 136
     574:	38 38       	cpi	r19, 0x88	; 136
     576:	bb d7       	rcall	.+3958   	;  0x14ee
     578:	ef 00       	.word	0x00ef	; ????
	...
     582:	00 00       	nop
     584:	1f 3f       	cpi	r17, 0xFF	; 255
     586:	7f 00       	.word	0x007f	; ????
     588:	00 fc       	sbrc	r0, 0
     58a:	fa f6       	brpl	.-66     	;  0x54a
     58c:	0e 0e       	add	r0, r30
     58e:	0e 0e       	add	r0, r30
     590:	0e 0e       	add	r0, r30
     592:	06 02       	muls	r16, r22
     594:	00 00       	nop
     596:	00 0f       	add	r16, r16
     598:	17 3b       	cpi	r17, 0xB7	; 183
     59a:	38 38       	cpi	r19, 0x88	; 136
     59c:	38 38       	cpi	r19, 0x88	; 136
     59e:	38 38       	cpi	r19, 0x88	; 136
     5a0:	b8 d0       	rcall	.+368    	;  0x712
     5a2:	e0 00       	.word	0x00e0	; ????
     5a4:	00 00       	nop
     5a6:	80 c0       	rjmp	.+256    	;  0x6a8
     5a8:	e0 e0       	ldi	r30, 0x00	; 0
     5aa:	e0 e0       	ldi	r30, 0x00	; 0
     5ac:	e0 e0       	ldi	r30, 0x00	; 0
     5ae:	df bf       	out	0x3f, r29	; 63
     5b0:	7f 00       	.word	0x007f	; ????
     5b2:	00 fc       	sbrc	r0, 0
     5b4:	fa f6       	brpl	.-66     	;  0x574
     5b6:	0e 0e       	add	r0, r30
     5b8:	0e 0e       	add	r0, r30
     5ba:	0e 0e       	add	r0, r30
     5bc:	06 02       	muls	r16, r22
     5be:	00 00       	nop
     5c0:	00 ef       	ldi	r16, 0xF0	; 240
     5c2:	d7 bb       	out	0x17, r29	; 23
     5c4:	38 38       	cpi	r19, 0x88	; 136
     5c6:	38 38       	cpi	r19, 0x88	; 136
     5c8:	38 38       	cpi	r19, 0x88	; 136
     5ca:	b8 d0       	rcall	.+368    	;  0x73c
     5cc:	e0 00       	.word	0x00e0	; ????
     5ce:	00 7f       	andi	r16, 0xF0	; 240
     5d0:	bf df       	rcall	.-130    	;  0x550
     5d2:	e0 e0       	ldi	r30, 0x00	; 0
     5d4:	e0 e0       	ldi	r30, 0x00	; 0
     5d6:	e0 e0       	ldi	r30, 0x00	; 0
     5d8:	df bf       	out	0x3f, r29	; 63
     5da:	7f 00       	.word	0x007f	; ????
     5dc:	00 00       	nop
     5de:	02 06       	cpc	r0, r18
     5e0:	0e 0e       	add	r0, r30
     5e2:	0e 0e       	add	r0, r30
     5e4:	0e 0e       	add	r0, r30
     5e6:	f6 fa       	bst	r15, 6
     5e8:	fc 00       	.word	0x00fc	; ????
	...
     5f2:	00 00       	nop
     5f4:	83 c7       	rjmp	.+3846   	;  0x14fc
     5f6:	ef 00       	.word	0x00ef	; ????
	...
     600:	00 00       	nop
     602:	1f 3f       	cpi	r17, 0xFF	; 255
     604:	7f 00       	.word	0x007f	; ????
     606:	00 fc       	sbrc	r0, 0
     608:	fa f6       	brpl	.-66     	;  0x5c8
     60a:	0e 0e       	add	r0, r30
     60c:	0e 0e       	add	r0, r30
     60e:	0e 0e       	add	r0, r30
     610:	f6 fa       	bst	r15, 6
     612:	fc 00       	.word	0x00fc	; ????
     614:	00 ef       	ldi	r16, 0xF0	; 240
     616:	d7 bb       	out	0x17, r29	; 23
     618:	38 38       	cpi	r19, 0x88	; 136
     61a:	38 38       	cpi	r19, 0x88	; 136
     61c:	38 38       	cpi	r19, 0x88	; 136
     61e:	bb d7       	rcall	.+3958   	;  0x1596
     620:	ef 00       	.word	0x00ef	; ????
     622:	00 7f       	andi	r16, 0xF0	; 240
     624:	bf df       	rcall	.-130    	;  0x5a4
     626:	e0 e0       	ldi	r30, 0x00	; 0
     628:	e0 e0       	ldi	r30, 0x00	; 0
     62a:	e0 e0       	ldi	r30, 0x00	; 0
     62c:	df bf       	out	0x3f, r29	; 63
     62e:	7f 00       	.word	0x007f	; ????
     630:	00 fc       	sbrc	r0, 0
     632:	fa f6       	brpl	.-66     	;  0x5f2
     634:	0e 0e       	add	r0, r30
     636:	0e 0e       	add	r0, r30
     638:	0e 0e       	add	r0, r30
     63a:	f6 fa       	bst	r15, 6
     63c:	fc 00       	.word	0x00fc	; ????
     63e:	00 0f       	add	r16, r16
     640:	17 3b       	cpi	r17, 0xB7	; 183
     642:	38 38       	cpi	r19, 0x88	; 136
     644:	38 38       	cpi	r19, 0x88	; 136
     646:	38 38       	cpi	r19, 0x88	; 136
     648:	bb d7       	rcall	.+3958   	;  0x15c0
     64a:	ef 00       	.word	0x00ef	; ????
     64c:	00 00       	nop
     64e:	80 c0       	rjmp	.+256    	;  0x750
     650:	e0 e0       	ldi	r30, 0x00	; 0
     652:	e0 e0       	ldi	r30, 0x00	; 0
     654:	e0 e0       	ldi	r30, 0x00	; 0
     656:	df bf       	out	0x3f, r29	; 63
     658:	7f 00       	.word	0x007f	; ????
     65a:	04 06       	cpc	r0, r20
     65c:	20 5f       	subi	r18, 0xF0	; 240
     65e:	00 00       	nop
     660:	00 03       	mulsu	r16, r16
     662:	a0 00       	.word	0x00a0	; ????
     664:	c0 0c       	add	r12, r0
     666:	00 f9       	bld	r16, 0
     668:	4f 80       	ldd	r4, Y+7	; 0x07
     66a:	6b eb       	ldi	r22, 0xBB	; 187
     66c:	00 98       	cbi	0x00, 0	; 0
     66e:	8c 80       	ldd	r8, Y+4	; 0x04
     670:	52 a5       	ldd	r21, Z+42	; 0x2a
     672:	80 03       	fmuls	r16, r16
     674:	00 00       	nop
     676:	01 c8       	rjmp	.-4094   	;  0xfffff67a
     678:	80 89       	ldd	r24, Z+16	; 0x10
     67a:	c0 00       	.word	0x00c0	; ????
     67c:	50 85       	ldd	r21, Z+8	; 0x08
     67e:	00 21       	and	r16, r0
     680:	c2 00       	.word	0x00c2	; ????
     682:	08 40       	sbci	r16, 0x08	; 8
     684:	00 20       	and	r0, r0
     686:	82 00       	.word	0x0082	; ????
     688:	00 20       	and	r0, r0
     68a:	00 18       	sub	r0, r0
     68c:	8c 00       	.word	0x008c	; ????
     68e:	fa 2f       	mov	r31, r26
     690:	80 4b       	sbci	r24, 0xB0	; 176
     692:	e0 80       	ld	r14, Z
     694:	5a 66       	ori	r21, 0x6A	; 106
     696:	80 8a       	std	Z+16, r8	; 0x10
     698:	a5 00       	.word	0x00a5	; ????
     69a:	e0 8f       	std	Z+24, r30	; 0x18
     69c:	80 ea       	ldi	r24, 0xA0	; 160
     69e:	ab 00       	.word	0x00ab	; ????
     6a0:	72 a9       	ldd	r23, Z+50	; 0x32
     6a2:	00 9a       	sbi	0x00, 0	; 0
     6a4:	8c 00       	.word	0x008c	; ????
     6a6:	fa af       	std	Y+58, r31	; 0x3a
     6a8:	80 4a       	sbci	r24, 0xA0	; 160
     6aa:	a7 00       	.word	0x00a7	; ????
     6ac:	01 40       	sbci	r16, 0x01	; 1
     6ae:	00 09       	sbc	r16, r0
     6b0:	40 00       	.word	0x0040	; ????
     6b2:	21 48       	sbci	r18, 0x81	; 129
     6b4:	80 51       	subi	r24, 0x10	; 16
     6b6:	45 00       	.word	0x0045	; ????
     6b8:	89 42       	sbci	r24, 0x29	; 41
     6ba:	00 42       	sbci	r16, 0x20	; 32
     6bc:	66 00       	.word	0x0066	; ????
     6be:	72 a6       	std	Z+42, r7	; 0x2a
     6c0:	80 7a       	andi	r24, 0xA0	; 160
     6c2:	87 80       	ldd	r8, Z+7	; 0x07
     6c4:	fa a5       	ldd	r31, Y+42	; 0x2a
     6c6:	00 72       	andi	r16, 0x20	; 32
     6c8:	25 00       	.word	0x0025	; ????
     6ca:	fa 27       	eor	r31, r26
     6cc:	00 fa       	bst	r0, 0
     6ce:	a8 80       	ld	r10, Y
     6d0:	fa 88       	ldd	r15, Y+18	; 0x12
     6d2:	00 72       	andi	r16, 0x20	; 32
     6d4:	2b 00       	.word	0x002b	; ????
     6d6:	f8 8f       	std	Y+24, r31	; 0x18
     6d8:	80 8b       	std	Z+16, r24	; 0x10
     6da:	e8 80       	ld	r14, Y
     6dc:	8b e8       	ldi	r24, 0x8B	; 139
     6de:	00 f8       	bld	r0, 0
     6e0:	8d 80       	ldd	r8, Y+5	; 0x05
     6e2:	f8 20       	and	r15, r8
     6e4:	80 f9       	bld	r24, 0
     6e6:	0f 80       	ldd	r0, Y+7	; 0x07
     6e8:	f9 cf       	rjmp	.-14     	;  0x6dc
     6ea:	80 72       	andi	r24, 0x20	; 32
     6ec:	27 00       	.word	0x0027	; ????
     6ee:	fa 84       	ldd	r15, Y+10	; 0x0a
     6f0:	00 72       	andi	r16, 0x20	; 32
     6f2:	27 40       	sbci	r18, 0x07	; 7
     6f4:	fa 85       	ldd	r31, Y+10	; 0x0a
     6f6:	80 4a       	sbci	r24, 0xA0	; 160
     6f8:	a9 00       	.word	0x00a9	; ????
     6fa:	83 e8       	ldi	r24, 0x83	; 131
     6fc:	00 f0       	brcs	.+0      	;  0x6fe
     6fe:	2f 00       	.word	0x002f	; ????
     700:	e0 6e       	ori	r30, 0xE0	; 224
     702:	00 f0       	brcs	.+0      	;  0x704
     704:	ef 00       	.word	0x00ef	; ????
     706:	d8 8d       	ldd	r29, Y+24	; 0x18
     708:	80 c0       	rjmp	.+256    	;  0x80a
     70a:	ec 00       	.word	0x00ec	; ????
     70c:	9a ac       	ldd	r9, Y+58	; 0x3a
     70e:	80 03       	fmuls	r16, r16
     710:	e8 80       	ld	r14, Y
     712:	c0 81       	ld	r28, Z
     714:	80 8b       	std	Z+16, r24	; 0x10
     716:	e0 00       	.word	0x00e0	; ????
     718:	42 04       	cpc	r4, r2
     71a:	00 08       	sbc	r0, r0
     71c:	20 80       	ld	r2, Z
     71e:	02 04       	cpc	r0, r2
     720:	00 31       	cpi	r16, 0x10	; 16
     722:	23 80       	ldd	r2, Z+3	; 0x03
     724:	f9 23       	and	r31, r25
     726:	00 31       	cpi	r16, 0x10	; 16
     728:	24 80       	ldd	r2, Z+4	; 0x04
     72a:	31 2f       	mov	r19, r17
     72c:	80 31       	cpi	r24, 0x10	; 16
     72e:	62 80       	ldd	r6, Z+2	; 0x02
     730:	23 ea       	ldi	r18, 0xA3	; 163
     732:	00 25       	eor	r16, r0
     734:	53 80       	ldd	r5, Z+3	; 0x03
     736:	f9 03       	fmulsu	r23, r17
     738:	80 02       	muls	r24, r16
     73a:	e0 00       	.word	0x00e0	; ????
     73c:	06 e0       	ldi	r16, 0x06	; 6
     73e:	00 f8       	bld	r0, 0
     740:	42 80       	ldd	r4, Z+2	; 0x02
     742:	03 e0       	ldi	r16, 0x03	; 3
     744:	00 79       	andi	r16, 0x90	; 144
     746:	87 80       	ldd	r8, Z+7	; 0x07
     748:	39 03       	fmul	r19, r17
     74a:	80 31       	cpi	r24, 0x10	; 16
     74c:	23 00       	.word	0x0023	; ????
     74e:	7d 23       	and	r23, r29
     750:	00 31       	cpi	r16, 0x10	; 16
     752:	27 c0       	rjmp	.+78     	;  0x7a2
     754:	78 84       	ldd	r7, Y+8	; 0x08
     756:	00 29       	or	r16, r0
     758:	40 00       	.word	0x0040	; ????
     75a:	43 e4       	ldi	r20, 0x43	; 67
     75c:	00 70       	andi	r16, 0x00	; 0
     75e:	27 00       	.word	0x0027	; ????
     760:	60 66       	ori	r22, 0x60	; 96
     762:	00 70       	andi	r16, 0x00	; 0
     764:	67 00       	.word	0x0067	; ????
     766:	48 c4       	rjmp	.+2192   	;  0xff8
     768:	80 74       	andi	r24, 0x40	; 64
     76a:	57 80       	ldd	r5, Z+7	; 0x07
     76c:	59 e6       	ldi	r21, 0x69	; 105
     76e:	80 23       	and	r24, r16
     770:	e8 80       	ld	r14, Y
     772:	03 60       	ori	r16, 0x03	; 3
     774:	00 8b       	std	Z+16, r16	; 0x10
     776:	e2 00       	.word	0x00e2	; ????
     778:	61 0c       	add	r6, r1
     77a:	00 00       	nop
     77c:	00 00       	nop
     77e:	00 24       	eor	r0, r0
     780:	00 27       	eor	r16, r16
     782:	00 2a       	or	r0, r16
     784:	00 00       	nop
     786:	00 00       	nop
     788:	00 25       	eor	r16, r0
     78a:	00 28       	or	r0, r0
     78c:	00 2b       	or	r16, r16
     78e:	00 00       	nop
     790:	00 00       	nop
     792:	00 23       	and	r16, r16
     794:	00 26       	eor	r0, r16
     796:	00 29       	or	r16, r0
     798:	00 04       	cpc	r0, r0
     79a:	04 04       	cpc	r0, r4
     79c:	04 04       	cpc	r0, r4
     79e:	04 04       	cpc	r0, r4
     7a0:	04 02       	muls	r16, r20
     7a2:	02 02       	muls	r16, r18
     7a4:	02 02       	muls	r16, r18
     7a6:	02 03       	mulsu	r16, r18
     7a8:	03 03       	mulsu	r16, r19
     7aa:	03 03       	mulsu	r16, r19
     7ac:	03 01       	movw	r0, r6
     7ae:	02 04       	cpc	r0, r2
     7b0:	08 10       	cpse	r0, r8
     7b2:	20 40       	sbci	r18, 0x00	; 0
     7b4:	80 01       	movw	r16, r0
     7b6:	02 04       	cpc	r0, r2
     7b8:	08 10       	cpse	r0, r8
     7ba:	20 01       	movw	r4, r0
     7bc:	02 04       	cpc	r0, r2
     7be:	08 10       	cpse	r0, r8
     7c0:	20 00       	.word	0x0020	; ????
     7c2:	00 00       	nop
     7c4:	07 00       	.word	0x0007	; ????
     7c6:	02 01       	movw	r0, r4
     7c8:	00 00       	nop
     7ca:	03 04       	cpc	r0, r3
     7cc:	06 00       	.word	0x0006	; ????
	...
     7d6:	40 7a       	andi	r20, 0xA0	; 160
     7d8:	10 f3       	brcs	.-60     	;  0x79e
     7da:	5a 00       	.word	0x005a	; ????
     7dc:	a0 72       	andi	r26, 0x20	; 32
     7de:	4e 18       	sub	r4, r14
     7e0:	09 00       	.word	0x0009	; ????
     7e2:	10 a5       	ldd	r17, Z+40	; 0x28
     7e4:	d4 e8       	ldi	r29, 0x84	; 132
     7e6:	00 00       	nop
     7e8:	e8 76       	andi	r30, 0x68	; 104
     7ea:	48 17       	cp	r20, r24
     7ec:	00 00       	nop
     7ee:	e4 0b       	sbc	r30, r20
     7f0:	54 02       	muls	r21, r20
     7f2:	00 00       	nop
     7f4:	ca 9a       	sbi	0x19, 2	; 25
     7f6:	3b 00       	.word	0x003b	; ????
     7f8:	00 00       	nop
     7fa:	e1 f5       	brne	.+120    	;  0x874
     7fc:	05 00       	.word	0x0005	; ????
     7fe:	00 80       	ld	r0, Z
     800:	96 98       	cbi	0x12, 6	; 18
     802:	00 00       	nop
     804:	00 40       	sbci	r16, 0x00	; 0
     806:	42 0f       	add	r20, r18
     808:	00 00       	nop
     80a:	00 a0       	ldd	r0, Z+32	; 0x20
     80c:	86 01       	movw	r16, r12
     80e:	00 00       	nop
     810:	00 10       	cpse	r0, r0
     812:	27 00       	.word	0x0027	; ????
     814:	00 00       	nop
     816:	00 e8       	ldi	r16, 0x80	; 128
     818:	03 00       	.word	0x0003	; ????
     81a:	00 00       	nop
     81c:	00 64       	ori	r16, 0x40	; 64
     81e:	00 00       	nop
     820:	00 00       	nop
     822:	00 0a       	sbc	r0, r16
     824:	00 00       	nop
     826:	00 00       	nop
     828:	00 01       	movw	r0, r0
     82a:	00 00       	nop
     82c:	00 00       	nop
     82e:	00 2c       	mov	r0, r0
     830:	76 d8       	rcall	.-3860   	;  0xfffff91e
     832:	88 dc       	rcall	.-1776   	;  0x144
     834:	67 4f       	sbci	r22, 0xF7	; 247
     836:	08 23       	and	r16, r24
     838:	df c1       	rjmp	.+958    	;  0xbf8
     83a:	df ae       	std	Y+63, r13	; 0x3f
     83c:	59 e1       	ldi	r21, 0x19	; 25
     83e:	b1 b7       	in	r27, 0x31	; 49
     840:	96 e5       	ldi	r25, 0x56	; 86
     842:	e3 e4       	ldi	r30, 0x43	; 67
     844:	53 c6       	rjmp	.+3238   	;  0x14ec
     846:	3a e6       	ldi	r19, 0x6A	; 106
     848:	51 99       	sbic	0x0a, 1	; 10
     84a:	76 96       	adiw	r30, 0x16	; 22
     84c:	e8 e6       	ldi	r30, 0x68	; 104
     84e:	c2 84       	ldd	r12, Z+10	; 0x0a
     850:	26 eb       	ldi	r18, 0xB6	; 182
     852:	89 8c       	ldd	r8, Y+25	; 0x19
     854:	9b 62       	ori	r25, 0x2B	; 43
     856:	ed 40       	sbci	r30, 0x0D	; 13
     858:	7c 6f       	ori	r23, 0xFC	; 252
     85a:	fc ef       	ldi	r31, 0xFC	; 252
     85c:	bc 9c       	mul	r11, r12
     85e:	9f 40       	sbci	r25, 0x0F	; 15
     860:	f2 ba       	out	0x12, r15	; 18
     862:	a5 6f       	ori	r26, 0xF5	; 245
     864:	a5 f4       	brhc	.+40     	;  0x88e
     866:	90 05       	cpc	r25, r0
     868:	5a 2a       	or	r5, r26
     86a:	f7 5c       	subi	r31, 0xC7	; 199
     86c:	93 6b       	ori	r25, 0xB3	; 179
     86e:	6c f9       	.word	0xf96c	; ????
     870:	67 6d       	ori	r22, 0xD7	; 215
     872:	c1 1b       	sub	r28, r17
     874:	fc e0       	ldi	r31, 0x0C	; 12
     876:	e4 0d       	add	r30, r4
     878:	47 fe       	sbrs	r4, 7
     87a:	f5 20       	and	r15, r5
     87c:	e6 b5       	in	r30, 0x26	; 38
     87e:	00 d0       	rcall	.+0      	;  0x880
     880:	ed 90       	ld	r14, X+
     882:	2e 03       	fmul	r18, r22
     884:	00 94       	com	r0
     886:	35 77       	andi	r19, 0x75	; 117
     888:	05 00       	.word	0x0005	; ????
     88a:	80 84       	ldd	r8, Z+8	; 0x08
     88c:	1e 08       	sbc	r1, r14
     88e:	00 00       	nop
     890:	20 4e       	sbci	r18, 0xE0	; 224
     892:	0a 00       	.word	0x000a	; ????
     894:	00 00       	nop
     896:	c8 0c       	add	r12, r8
     898:	33 33       	cpi	r19, 0x33	; 51
     89a:	33 33       	cpi	r19, 0x33	; 51
     89c:	0f 98       	cbi	0x01, 7	; 1
     89e:	6e 12       	cpse	r6, r30
     8a0:	83 11       	cpse	r24, r3
     8a2:	41 ef       	ldi	r20, 0xF1	; 241
     8a4:	8d 21       	and	r24, r13
     8a6:	14 89       	ldd	r17, Z+20	; 0x14
     8a8:	3b e6       	ldi	r19, 0x6B	; 107
     8aa:	55 16       	cp	r5, r21
     8ac:	cf fe       	.word	0xfecf	; ????
     8ae:	e6 db       	rcall	.-2100   	;  0x7c
     8b0:	18 d1       	rcall	.+560    	;  0xae2
     8b2:	84 4b       	sbci	r24, 0xB4	; 180
     8b4:	38 1b       	sub	r19, r24
     8b6:	f7 7c       	andi	r31, 0xC7	; 199
     8b8:	1d 90       	ld	r1, X+
     8ba:	1d a4       	ldd	r1, Y+45	; 0x2d
     8bc:	bb e4       	ldi	r27, 0x4B	; 75
     8be:	24 20       	and	r2, r4
     8c0:	32 84       	ldd	r3, Z+10	; 0x0a
     8c2:	72 5e       	subi	r23, 0xE2	; 226
     8c4:	22 81       	ldd	r18, Z+2	; 0x02
     8c6:	00 c9       	rjmp	.-3584   	;  0xfffffac8
     8c8:	f1 24       	eor	r15, r1
     8ca:	ec a1       	ldd	r30, Y+36	; 0x24
     8cc:	e5 3d       	cpi	r30, 0xD5	; 213
     8ce:	27 00       	.word	0x0027	; ????
     8d0:	15 07       	cpc	r17, r21
     8d2:	0a 13       	cpse	r16, r26
     8d4:	11 24       	eor	r1, r1
     8d6:	1f be       	out	0x3f, r1	; 63
     8d8:	cf ef       	ldi	r28, 0xFF	; 255
     8da:	d8 e0       	ldi	r29, 0x08	; 8
     8dc:	de bf       	out	0x3e, r29	; 62
     8de:	cd bf       	out	0x3d, r28	; 61
     8e0:	11 e0       	ldi	r17, 0x01	; 1
     8e2:	a0 e0       	ldi	r26, 0x00	; 0
     8e4:	b1 e0       	ldi	r27, 0x01	; 1
     8e6:	ea eb       	ldi	r30, 0xBA	; 186
     8e8:	fd e2       	ldi	r31, 0x2D	; 45
     8ea:	02 c0       	rjmp	.+4      	;  0x8f0
     8ec:	05 90       	lpm	r0, Z+
     8ee:	0d 92       	st	X+, r0
     8f0:	a8 38       	cpi	r26, 0x88	; 136
     8f2:	b1 07       	cpc	r27, r17
     8f4:	d9 f7       	brne	.-10     	;  0x8ec
     8f6:	14 e0       	ldi	r17, 0x04	; 4
     8f8:	a8 e8       	ldi	r26, 0x88	; 136
     8fa:	b1 e0       	ldi	r27, 0x01	; 1
     8fc:	01 c0       	rjmp	.+2      	;  0x900
     8fe:	1d 92       	st	X+, r1
     900:	a8 3c       	cpi	r26, 0xC8	; 200
     902:	b1 07       	cpc	r27, r17
     904:	e1 f7       	brne	.-8      	;  0x8fe
     906:	18 e0       	ldi	r17, 0x08	; 8
     908:	c4 ed       	ldi	r28, 0xD4	; 212
     90a:	d8 e0       	ldi	r29, 0x08	; 8
     90c:	04 c0       	rjmp	.+8      	;  0x916
     90e:	22 97       	sbiw	r28, 0x02	; 2
     910:	fe 01       	movw	r30, r28
     912:	0e 94 a0 16 	call	0x2d40	;  0x2d40
     916:	c0 3d       	cpi	r28, 0xD0	; 208
     918:	d1 07       	cpc	r29, r17
     91a:	c9 f7       	brne	.-14     	;  0x90e
     91c:	0e 94 60 13 	call	0x26c0	;  0x26c0
     920:	0c 94 db 16 	jmp	0x2db6	;  0x2db6
     924:	0c 94 00 00 	jmp	0	;  0x0
     928:	ef 92       	push	r14
     92a:	ff 92       	push	r15
     92c:	0f 93       	push	r16
     92e:	1f 93       	push	r17
     930:	f2 2f       	mov	r31, r18
     932:	f0 2e       	mov	r15, r16
     934:	47 fd       	sbrc	r20, 7
     936:	02 c0       	rjmp	.+4      	;  0x93c
     938:	e4 e0       	ldi	r30, 0x04	; 4
     93a:	01 c0       	rjmp	.+2      	;  0x93e
     93c:	e4 e1       	ldi	r30, 0x14	; 20
     93e:	24 2f       	mov	r18, r20
     940:	33 27       	eor	r19, r19
     942:	27 fd       	sbrc	r18, 7
     944:	30 95       	com	r19
     946:	37 ff       	sbrs	r19, 7
     948:	03 c0       	rjmp	.+6      	;  0x950
     94a:	30 95       	com	r19
     94c:	21 95       	neg	r18
     94e:	3f 4f       	sbci	r19, 0xFF	; 255
     950:	4f 2d       	mov	r20, r15
     952:	51 2f       	mov	r21, r17
     954:	0f 2f       	mov	r16, r31
     956:	ee 2e       	mov	r14, r30
     958:	0e 94 db 04 	call	0x9b6	;  0x9b6
     95c:	8f 2d       	mov	r24, r15
     95e:	91 2f       	mov	r25, r17
     960:	1f 91       	pop	r17
     962:	0f 91       	pop	r16
     964:	ff 90       	pop	r15
     966:	ef 90       	pop	r14
     968:	08 95       	ret
     96a:	fc 01       	movw	r30, r24
     96c:	88 27       	eor	r24, r24
     96e:	99 27       	eor	r25, r25
     970:	e8 94       	clt
     972:	21 91       	ld	r18, Z+
     974:	20 32       	cpi	r18, 0x20	; 32
     976:	e9 f3       	breq	.-6      	;  0x972
     978:	29 30       	cpi	r18, 0x09	; 9
     97a:	10 f0       	brcs	.+4      	;  0x980
     97c:	2e 30       	cpi	r18, 0x0E	; 14
     97e:	c8 f3       	brcs	.-14     	;  0x972
     980:	2b 32       	cpi	r18, 0x2B	; 43
     982:	41 f0       	breq	.+16     	;  0x994
     984:	2d 32       	cpi	r18, 0x2D	; 45
     986:	39 f4       	brne	.+14     	;  0x996
     988:	68 94       	set
     98a:	04 c0       	rjmp	.+8      	;  0x994
     98c:	0e 94 d3 04 	call	0x9a6	;  0x9a6
     990:	82 0f       	add	r24, r18
     992:	91 1d       	adc	r25, r1
     994:	21 91       	ld	r18, Z+
     996:	20 53       	subi	r18, 0x30	; 48
     998:	2a 30       	cpi	r18, 0x0A	; 10
     99a:	c0 f3       	brcs	.-16     	;  0x98c
     99c:	1e f4       	brtc	.+6      	;  0x9a4
     99e:	90 95       	com	r25
     9a0:	81 95       	neg	r24
     9a2:	9f 4f       	sbci	r25, 0xFF	; 255
     9a4:	08 95       	ret
     9a6:	7a e0       	ldi	r23, 0x0A	; 10
     9a8:	97 9f       	mul	r25, r23
     9aa:	90 2d       	mov	r25, r0
     9ac:	87 9f       	mul	r24, r23
     9ae:	80 2d       	mov	r24, r0
     9b0:	91 0d       	add	r25, r1
     9b2:	11 24       	eor	r1, r1
     9b4:	08 95       	ret
     9b6:	a9 e0       	ldi	r26, 0x09	; 9
     9b8:	b0 e0       	ldi	r27, 0x00	; 0
     9ba:	e1 ee       	ldi	r30, 0xE1	; 225
     9bc:	f4 e0       	ldi	r31, 0x04	; 4
     9be:	0c 94 a8 16 	jmp	0x2d50	;  0x2d50
     9c2:	6a 01       	movw	r12, r20
     9c4:	12 2f       	mov	r17, r18
     9c6:	a0 2e       	mov	r10, r16
     9c8:	be 2c       	mov	r11, r14
     9ca:	2b e3       	ldi	r18, 0x3B	; 59
     9cc:	20 17       	cp	r18, r16
     9ce:	18 f4       	brcc	.+6      	;  0x9d6
     9d0:	2c e3       	ldi	r18, 0x3C	; 60
     9d2:	92 2e       	mov	r9, r18
     9d4:	02 c0       	rjmp	.+4      	;  0x9da
     9d6:	90 2e       	mov	r9, r16
     9d8:	93 94       	inc	r9
     9da:	ae 01       	movw	r20, r28
     9dc:	4f 5f       	subi	r20, 0xFF	; 255
     9de:	5f 4f       	sbci	r21, 0xFF	; 255
     9e0:	27 e0       	ldi	r18, 0x07	; 7
     9e2:	09 2d       	mov	r16, r9
     9e4:	0e 94 3d 06 	call	0xc7a	;  0xc7a
     9e8:	bc 01       	movw	r22, r24
     9ea:	89 81       	ldd	r24, Y+1	; 0x01
     9ec:	e8 2e       	mov	r14, r24
     9ee:	ff 24       	eor	r15, r15
     9f0:	c7 01       	movw	r24, r14
     9f2:	89 70       	andi	r24, 0x09	; 9
     9f4:	90 70       	andi	r25, 0x00	; 0
     9f6:	01 97       	sbiw	r24, 0x01	; 1
     9f8:	11 f4       	brne	.+4      	;  0x9fe
     9fa:	ad e2       	ldi	r26, 0x2D	; 45
     9fc:	09 c0       	rjmp	.+18     	;  0xa10
     9fe:	b1 fe       	sbrs	r11, 1
     a00:	02 c0       	rjmp	.+4      	;  0xa06
     a02:	ab e2       	ldi	r26, 0x2B	; 43
     a04:	05 c0       	rjmp	.+10     	;  0xa10
     a06:	b0 fc       	sbrc	r11, 0
     a08:	02 c0       	rjmp	.+4      	;  0xa0e
     a0a:	a0 e0       	ldi	r26, 0x00	; 0
     a0c:	01 c0       	rjmp	.+2      	;  0xa10
     a0e:	a0 e2       	ldi	r26, 0x20	; 32
     a10:	e3 fe       	sbrs	r14, 3
     a12:	3b c0       	rjmp	.+118    	;  0xa8a
     a14:	aa 23       	and	r26, r26
     a16:	11 f4       	brne	.+4      	;  0xa1c
     a18:	23 e0       	ldi	r18, 0x03	; 3
     a1a:	01 c0       	rjmp	.+2      	;  0xa1e
     a1c:	24 e0       	ldi	r18, 0x04	; 4
     a1e:	21 17       	cp	r18, r17
     a20:	10 f0       	brcs	.+4      	;  0xa26
     a22:	20 e0       	ldi	r18, 0x00	; 0
     a24:	02 c0       	rjmp	.+4      	;  0xa2a
     a26:	12 1b       	sub	r17, r18
     a28:	21 2f       	mov	r18, r17
     a2a:	eb 2c       	mov	r14, r11
     a2c:	b4 fe       	sbrs	r11, 4
     a2e:	02 c0       	rjmp	.+4      	;  0xa34
     a30:	32 2f       	mov	r19, r18
     a32:	0a c0       	rjmp	.+20     	;  0xa48
     a34:	f6 01       	movw	r30, r12
     a36:	32 2f       	mov	r19, r18
     a38:	80 e2       	ldi	r24, 0x20	; 32
     a3a:	02 c0       	rjmp	.+4      	;  0xa40
     a3c:	81 93       	st	Z+, r24
     a3e:	31 50       	subi	r19, 0x01	; 1
     a40:	33 23       	and	r19, r19
     a42:	e1 f7       	brne	.-8      	;  0xa3c
     a44:	c2 0e       	add	r12, r18
     a46:	d1 1c       	adc	r13, r1
     a48:	aa 23       	and	r26, r26
     a4a:	19 f0       	breq	.+6      	;  0xa52
     a4c:	f6 01       	movw	r30, r12
     a4e:	a1 93       	st	Z+, r26
     a50:	6f 01       	movw	r12, r30
     a52:	f6 01       	movw	r30, r12
     a54:	31 96       	adiw	r30, 0x01	; 1
     a56:	e2 fe       	sbrs	r14, 2
     a58:	05 c0       	rjmp	.+10     	;  0xa64
     a5a:	9e e4       	ldi	r25, 0x4E	; 78
     a5c:	d6 01       	movw	r26, r12
     a5e:	9c 93       	st	X, r25
     a60:	81 e4       	ldi	r24, 0x41	; 65
     a62:	04 c0       	rjmp	.+8      	;  0xa6c
     a64:	9e e6       	ldi	r25, 0x6E	; 110
     a66:	d6 01       	movw	r26, r12
     a68:	9c 93       	st	X, r25
     a6a:	81 e6       	ldi	r24, 0x61	; 97
     a6c:	11 96       	adiw	r26, 0x01	; 1
     a6e:	8c 93       	st	X, r24
     a70:	91 83       	std	Z+1, r25	; 0x01
     a72:	32 96       	adiw	r30, 0x02	; 2
     a74:	df 01       	movw	r26, r30
     a76:	83 2f       	mov	r24, r19
     a78:	90 e2       	ldi	r25, 0x20	; 32
     a7a:	02 c0       	rjmp	.+4      	;  0xa80
     a7c:	9d 93       	st	X+, r25
     a7e:	81 50       	subi	r24, 0x01	; 1
     a80:	88 23       	and	r24, r24
     a82:	e1 f7       	brne	.-8      	;  0xa7c
     a84:	e3 0f       	add	r30, r19
     a86:	f1 1d       	adc	r31, r1
     a88:	40 c0       	rjmp	.+128    	;  0xb0a
     a8a:	e2 fe       	sbrs	r14, 2
     a8c:	42 c0       	rjmp	.+132    	;  0xb12
     a8e:	aa 23       	and	r26, r26
     a90:	11 f4       	brne	.+4      	;  0xa96
     a92:	23 e0       	ldi	r18, 0x03	; 3
     a94:	01 c0       	rjmp	.+2      	;  0xa98
     a96:	24 e0       	ldi	r18, 0x04	; 4
     a98:	21 17       	cp	r18, r17
     a9a:	10 f0       	brcs	.+4      	;  0xaa0
     a9c:	20 e0       	ldi	r18, 0x00	; 0
     a9e:	02 c0       	rjmp	.+4      	;  0xaa4
     aa0:	12 1b       	sub	r17, r18
     aa2:	21 2f       	mov	r18, r17
     aa4:	eb 2c       	mov	r14, r11
     aa6:	b4 fe       	sbrs	r11, 4
     aa8:	02 c0       	rjmp	.+4      	;  0xaae
     aaa:	92 2f       	mov	r25, r18
     aac:	0a c0       	rjmp	.+20     	;  0xac2
     aae:	f6 01       	movw	r30, r12
     ab0:	92 2f       	mov	r25, r18
     ab2:	80 e2       	ldi	r24, 0x20	; 32
     ab4:	02 c0       	rjmp	.+4      	;  0xaba
     ab6:	81 93       	st	Z+, r24
     ab8:	91 50       	subi	r25, 0x01	; 1
     aba:	99 23       	and	r25, r25
     abc:	e1 f7       	brne	.-8      	;  0xab6
     abe:	c2 0e       	add	r12, r18
     ac0:	d1 1c       	adc	r13, r1
     ac2:	aa 23       	and	r26, r26
     ac4:	19 f0       	breq	.+6      	;  0xacc
     ac6:	f6 01       	movw	r30, r12
     ac8:	a1 93       	st	Z+, r26
     aca:	6f 01       	movw	r12, r30
     acc:	f6 01       	movw	r30, r12
     ace:	31 96       	adiw	r30, 0x01	; 1
     ad0:	e2 fe       	sbrs	r14, 2
     ad2:	08 c0       	rjmp	.+16     	;  0xae4
     ad4:	89 e4       	ldi	r24, 0x49	; 73
     ad6:	d6 01       	movw	r26, r12
     ad8:	8c 93       	st	X, r24
     ada:	8e e4       	ldi	r24, 0x4E	; 78
     adc:	11 96       	adiw	r26, 0x01	; 1
     ade:	8c 93       	st	X, r24
     ae0:	86 e4       	ldi	r24, 0x46	; 70
     ae2:	07 c0       	rjmp	.+14     	;  0xaf2
     ae4:	89 e6       	ldi	r24, 0x69	; 105
     ae6:	d6 01       	movw	r26, r12
     ae8:	8c 93       	st	X, r24
     aea:	8e e6       	ldi	r24, 0x6E	; 110
     aec:	11 96       	adiw	r26, 0x01	; 1
     aee:	8c 93       	st	X, r24
     af0:	86 e6       	ldi	r24, 0x66	; 102
     af2:	81 83       	std	Z+1, r24	; 0x01
     af4:	32 96       	adiw	r30, 0x02	; 2
     af6:	df 01       	movw	r26, r30
     af8:	89 2f       	mov	r24, r25
     afa:	20 e2       	ldi	r18, 0x20	; 32
     afc:	02 c0       	rjmp	.+4      	;  0xb02
     afe:	2d 93       	st	X+, r18
     b00:	81 50       	subi	r24, 0x01	; 1
     b02:	88 23       	and	r24, r24
     b04:	e1 f7       	brne	.-8      	;  0xafe
     b06:	e9 0f       	add	r30, r25
     b08:	f1 1d       	adc	r31, r1
     b0a:	10 82       	st	Z, r1
     b0c:	2e ef       	ldi	r18, 0xFE	; 254
     b0e:	3f ef       	ldi	r19, 0xFF	; 255
     b10:	af c0       	rjmp	.+350    	;  0xc70
     b12:	16 16       	cp	r1, r22
     b14:	17 06       	cpc	r1, r23
     b16:	1c f0       	brlt	.+6      	;  0xb1e
     b18:	41 e0       	ldi	r20, 0x01	; 1
     b1a:	50 e0       	ldi	r21, 0x00	; 0
     b1c:	03 c0       	rjmp	.+6      	;  0xb24
     b1e:	ab 01       	movw	r20, r22
     b20:	4f 5f       	subi	r20, 0xFF	; 255
     b22:	5f 4f       	sbci	r21, 0xFF	; 255
     b24:	aa 20       	and	r10, r10
     b26:	19 f4       	brne	.+6      	;  0xb2e
     b28:	80 e0       	ldi	r24, 0x00	; 0
     b2a:	90 e0       	ldi	r25, 0x00	; 0
     b2c:	03 c0       	rjmp	.+6      	;  0xb34
     b2e:	8a 2d       	mov	r24, r10
     b30:	90 e0       	ldi	r25, 0x00	; 0
     b32:	01 96       	adiw	r24, 0x01	; 1
     b34:	20 e0       	ldi	r18, 0x00	; 0
     b36:	30 e0       	ldi	r19, 0x00	; 0
     b38:	aa 23       	and	r26, r26
     b3a:	11 f0       	breq	.+4      	;  0xb40
     b3c:	21 e0       	ldi	r18, 0x01	; 1
     b3e:	30 e0       	ldi	r19, 0x00	; 0
     b40:	24 0f       	add	r18, r20
     b42:	35 1f       	adc	r19, r21
     b44:	28 0f       	add	r18, r24
     b46:	39 1f       	adc	r19, r25
     b48:	81 2f       	mov	r24, r17
     b4a:	90 e0       	ldi	r25, 0x00	; 0
     b4c:	28 17       	cp	r18, r24
     b4e:	39 07       	cpc	r19, r25
     b50:	14 f0       	brlt	.+4      	;  0xb56
     b52:	20 e0       	ldi	r18, 0x00	; 0
     b54:	02 c0       	rjmp	.+4      	;  0xb5a
     b56:	12 1b       	sub	r17, r18
     b58:	21 2f       	mov	r18, r17
     b5a:	4b 2d       	mov	r20, r11
     b5c:	50 e0       	ldi	r21, 0x00	; 0
     b5e:	ca 01       	movw	r24, r20
     b60:	80 71       	andi	r24, 0x10	; 16
     b62:	90 70       	andi	r25, 0x00	; 0
     b64:	b4 fc       	sbrc	r11, 4
     b66:	0d c0       	rjmp	.+26     	;  0xb82
     b68:	b3 fc       	sbrc	r11, 3
     b6a:	0b c0       	rjmp	.+22     	;  0xb82
     b6c:	f6 01       	movw	r30, r12
     b6e:	32 2f       	mov	r19, r18
     b70:	40 e2       	ldi	r20, 0x20	; 32
     b72:	02 c0       	rjmp	.+4      	;  0xb78
     b74:	41 93       	st	Z+, r20
     b76:	31 50       	subi	r19, 0x01	; 1
     b78:	33 23       	and	r19, r19
     b7a:	e1 f7       	brne	.-8      	;  0xb74
     b7c:	c2 0e       	add	r12, r18
     b7e:	d1 1c       	adc	r13, r1
     b80:	01 c0       	rjmp	.+2      	;  0xb84
     b82:	32 2f       	mov	r19, r18
     b84:	aa 23       	and	r26, r26
     b86:	19 f0       	breq	.+6      	;  0xb8e
     b88:	f6 01       	movw	r30, r12
     b8a:	a1 93       	st	Z+, r26
     b8c:	6f 01       	movw	r12, r30
     b8e:	89 2b       	or	r24, r25
     b90:	11 f0       	breq	.+4      	;  0xb96
     b92:	13 2f       	mov	r17, r19
     b94:	0a c0       	rjmp	.+20     	;  0xbaa
     b96:	f6 01       	movw	r30, r12
     b98:	13 2f       	mov	r17, r19
     b9a:	80 e3       	ldi	r24, 0x30	; 48
     b9c:	02 c0       	rjmp	.+4      	;  0xba2
     b9e:	81 93       	st	Z+, r24
     ba0:	11 50       	subi	r17, 0x01	; 1
     ba2:	11 23       	and	r17, r17
     ba4:	e1 f7       	brne	.-8      	;  0xb9e
     ba6:	c3 0e       	add	r12, r19
     ba8:	d1 1c       	adc	r13, r1
     baa:	09 2d       	mov	r16, r9
     bac:	06 0f       	add	r16, r22
     bae:	ba 80       	ldd	r11, Y+2	; 0x02
     bb0:	90 e1       	ldi	r25, 0x10	; 16
     bb2:	89 2e       	mov	r8, r25
     bb4:	91 2c       	mov	r9, r1
     bb6:	8e 20       	and	r8, r14
     bb8:	9f 20       	and	r9, r15
     bba:	e4 fe       	sbrs	r14, 4
     bbc:	04 c0       	rjmp	.+8      	;  0xbc6
     bbe:	f1 e3       	ldi	r31, 0x31	; 49
     bc0:	bf 16       	cp	r11, r31
     bc2:	09 f4       	brne	.+2      	;  0xbc6
     bc4:	01 50       	subi	r16, 0x01	; 1
     bc6:	10 16       	cp	r1, r16
     bc8:	14 f0       	brlt	.+4      	;  0xbce
     bca:	01 e0       	ldi	r16, 0x01	; 1
     bcc:	03 c0       	rjmp	.+6      	;  0xbd4
     bce:	09 30       	cpi	r16, 0x09	; 9
     bd0:	08 f0       	brcs	.+2      	;  0xbd4
     bd2:	08 e0       	ldi	r16, 0x08	; 8
     bd4:	9b 01       	movw	r18, r22
     bd6:	77 ff       	sbrs	r23, 7
     bd8:	02 c0       	rjmp	.+4      	;  0xbde
     bda:	20 e0       	ldi	r18, 0x00	; 0
     bdc:	30 e0       	ldi	r19, 0x00	; 0
     bde:	cb 01       	movw	r24, r22
     be0:	01 96       	adiw	r24, 0x01	; 1
     be2:	82 1b       	sub	r24, r18
     be4:	93 0b       	sbc	r25, r19
     be6:	fe 01       	movw	r30, r28
     be8:	31 96       	adiw	r30, 0x01	; 1
     bea:	e8 0f       	add	r30, r24
     bec:	f9 1f       	adc	r31, r25
     bee:	8e e2       	ldi	r24, 0x2E	; 46
     bf0:	f8 2e       	mov	r15, r24
     bf2:	3b 01       	movw	r6, r22
     bf4:	60 1a       	sub	r6, r16
     bf6:	71 08       	sbc	r7, r1
     bf8:	8a 2d       	mov	r24, r10
     bfa:	90 e0       	ldi	r25, 0x00	; 0
     bfc:	44 27       	eor	r20, r20
     bfe:	55 27       	eor	r21, r21
     c00:	48 1b       	sub	r20, r24
     c02:	59 0b       	sbc	r21, r25
     c04:	8f ef       	ldi	r24, 0xFF	; 255
     c06:	2f 3f       	cpi	r18, 0xFF	; 255
     c08:	38 07       	cpc	r19, r24
     c0a:	19 f4       	brne	.+6      	;  0xc12
     c0c:	d6 01       	movw	r26, r12
     c0e:	fd 92       	st	X+, r15
     c10:	6d 01       	movw	r12, r26
     c12:	62 17       	cp	r22, r18
     c14:	73 07       	cpc	r23, r19
     c16:	2c f0       	brlt	.+10     	;  0xc22
     c18:	62 16       	cp	r6, r18
     c1a:	73 06       	cpc	r7, r19
     c1c:	14 f4       	brge	.+4      	;  0xc22
     c1e:	80 81       	ld	r24, Z
     c20:	01 c0       	rjmp	.+2      	;  0xc24
     c22:	80 e3       	ldi	r24, 0x30	; 48
     c24:	21 50       	subi	r18, 0x01	; 1
     c26:	30 40       	sbci	r19, 0x00	; 0
     c28:	31 96       	adiw	r30, 0x01	; 1
     c2a:	24 17       	cp	r18, r20
     c2c:	35 07       	cpc	r19, r21
     c2e:	24 f0       	brlt	.+8      	;  0xc38
     c30:	d6 01       	movw	r26, r12
     c32:	8d 93       	st	X+, r24
     c34:	6d 01       	movw	r12, r26
     c36:	e6 cf       	rjmp	.-52     	;  0xc04
     c38:	26 17       	cp	r18, r22
     c3a:	37 07       	cpc	r19, r23
     c3c:	49 f4       	brne	.+18     	;  0xc50
     c3e:	b5 e3       	ldi	r27, 0x35	; 53
     c40:	bb 15       	cp	r27, r11
     c42:	28 f0       	brcs	.+10     	;  0xc4e
     c44:	bb 16       	cp	r11, r27
     c46:	21 f4       	brne	.+8      	;  0xc50
     c48:	81 14       	cp	r8, r1
     c4a:	91 04       	cpc	r9, r1
     c4c:	09 f4       	brne	.+2      	;  0xc50
     c4e:	81 e3       	ldi	r24, 0x31	; 49
     c50:	f6 01       	movw	r30, r12
     c52:	81 93       	st	Z+, r24
     c54:	d6 01       	movw	r26, r12
     c56:	81 2f       	mov	r24, r17
     c58:	90 e2       	ldi	r25, 0x20	; 32
     c5a:	02 c0       	rjmp	.+4      	;  0xc60
     c5c:	9c 93       	st	X, r25
     c5e:	81 50       	subi	r24, 0x01	; 1
     c60:	11 96       	adiw	r26, 0x01	; 1
     c62:	88 23       	and	r24, r24
     c64:	d9 f7       	brne	.-10     	;  0xc5c
     c66:	e1 0f       	add	r30, r17
     c68:	f1 1d       	adc	r31, r1
     c6a:	10 82       	st	Z, r1
     c6c:	20 e0       	ldi	r18, 0x00	; 0
     c6e:	30 e0       	ldi	r19, 0x00	; 0
     c70:	c9 01       	movw	r24, r18
     c72:	29 96       	adiw	r28, 0x09	; 9
     c74:	ee e0       	ldi	r30, 0x0E	; 14
     c76:	0c 94 c4 16 	jmp	0x2d88	;  0x2d88
     c7a:	28 30       	cpi	r18, 0x08	; 8
     c7c:	08 f0       	brcs	.+2      	;  0xc80
     c7e:	27 e0       	ldi	r18, 0x07	; 7
     c80:	33 27       	eor	r19, r19
     c82:	da 01       	movw	r26, r20
     c84:	99 0f       	add	r25, r25
     c86:	31 1d       	adc	r19, r1
     c88:	87 fd       	sbrc	r24, 7
     c8a:	91 60       	ori	r25, 0x01	; 1
     c8c:	00 96       	adiw	r24, 0x00	; 0
     c8e:	61 05       	cpc	r22, r1
     c90:	71 05       	cpc	r23, r1
     c92:	39 f4       	brne	.+14     	;  0xca2
     c94:	32 60       	ori	r19, 0x02	; 2
     c96:	2e 5f       	subi	r18, 0xFE	; 254
     c98:	3d 93       	st	X+, r19
     c9a:	30 e3       	ldi	r19, 0x30	; 48
     c9c:	2a 95       	dec	r18
     c9e:	e1 f7       	brne	.-8      	;  0xc98
     ca0:	08 95       	ret
     ca2:	9f 3f       	cpi	r25, 0xFF	; 255
     ca4:	30 f0       	brcs	.+12     	;  0xcb2
     ca6:	80 38       	cpi	r24, 0x80	; 128
     ca8:	71 05       	cpc	r23, r1
     caa:	61 05       	cpc	r22, r1
     cac:	09 f0       	breq	.+2      	;  0xcb0
     cae:	3c 5f       	subi	r19, 0xFC	; 252
     cb0:	3c 5f       	subi	r19, 0xFC	; 252
     cb2:	3d 93       	st	X+, r19
     cb4:	91 30       	cpi	r25, 0x01	; 1
     cb6:	08 f0       	brcs	.+2      	;  0xcba
     cb8:	80 68       	ori	r24, 0x80	; 128
     cba:	91 1d       	adc	r25, r1
     cbc:	df 93       	push	r29
     cbe:	cf 93       	push	r28
     cc0:	1f 93       	push	r17
     cc2:	0f 93       	push	r16
     cc4:	ff 92       	push	r15
     cc6:	ef 92       	push	r14
     cc8:	19 2f       	mov	r17, r25
     cca:	98 7f       	andi	r25, 0xF8	; 248
     ccc:	96 95       	lsr	r25
     cce:	e9 2f       	mov	r30, r25
     cd0:	96 95       	lsr	r25
     cd2:	96 95       	lsr	r25
     cd4:	e9 0f       	add	r30, r25
     cd6:	ff 27       	eor	r31, r31
     cd8:	e1 5d       	subi	r30, 0xD1	; 209
     cda:	f7 4f       	sbci	r31, 0xF7	; 247
     cdc:	99 27       	eor	r25, r25
     cde:	33 27       	eor	r19, r19
     ce0:	ee 24       	eor	r14, r14
     ce2:	ff 24       	eor	r15, r15
     ce4:	a7 01       	movw	r20, r14
     ce6:	e7 01       	movw	r28, r14
     ce8:	05 90       	lpm	r0, Z+
     cea:	08 94       	sec
     cec:	07 94       	ror	r0
     cee:	28 f4       	brcc	.+10     	;  0xcfa
     cf0:	36 0f       	add	r19, r22
     cf2:	e7 1e       	adc	r14, r23
     cf4:	f8 1e       	adc	r15, r24
     cf6:	49 1f       	adc	r20, r25
     cf8:	51 1d       	adc	r21, r1
     cfa:	66 0f       	add	r22, r22
     cfc:	77 1f       	adc	r23, r23
     cfe:	88 1f       	adc	r24, r24
     d00:	99 1f       	adc	r25, r25
     d02:	06 94       	lsr	r0
     d04:	a1 f7       	brne	.-24     	;  0xcee
     d06:	05 90       	lpm	r0, Z+
     d08:	07 94       	ror	r0
     d0a:	28 f4       	brcc	.+10     	;  0xd16
     d0c:	e7 0e       	add	r14, r23
     d0e:	f8 1e       	adc	r15, r24
     d10:	49 1f       	adc	r20, r25
     d12:	56 1f       	adc	r21, r22
     d14:	c1 1d       	adc	r28, r1
     d16:	77 0f       	add	r23, r23
     d18:	88 1f       	adc	r24, r24
     d1a:	99 1f       	adc	r25, r25
     d1c:	66 1f       	adc	r22, r22
     d1e:	06 94       	lsr	r0
     d20:	a1 f7       	brne	.-24     	;  0xd0a
     d22:	05 90       	lpm	r0, Z+
     d24:	07 94       	ror	r0
     d26:	28 f4       	brcc	.+10     	;  0xd32
     d28:	f8 0e       	add	r15, r24
     d2a:	49 1f       	adc	r20, r25
     d2c:	56 1f       	adc	r21, r22
     d2e:	c7 1f       	adc	r28, r23
     d30:	d1 1d       	adc	r29, r1
     d32:	88 0f       	add	r24, r24
     d34:	99 1f       	adc	r25, r25
     d36:	66 1f       	adc	r22, r22
     d38:	77 1f       	adc	r23, r23
     d3a:	06 94       	lsr	r0
     d3c:	a1 f7       	brne	.-24     	;  0xd26
     d3e:	05 90       	lpm	r0, Z+
     d40:	07 94       	ror	r0
     d42:	20 f4       	brcc	.+8      	;  0xd4c
     d44:	49 0f       	add	r20, r25
     d46:	56 1f       	adc	r21, r22
     d48:	c7 1f       	adc	r28, r23
     d4a:	d8 1f       	adc	r29, r24
     d4c:	99 0f       	add	r25, r25
     d4e:	66 1f       	adc	r22, r22
     d50:	77 1f       	adc	r23, r23
     d52:	88 1f       	adc	r24, r24
     d54:	06 94       	lsr	r0
     d56:	a9 f7       	brne	.-22     	;  0xd42
     d58:	84 91       	lpm	r24, Z+
     d5a:	10 95       	com	r17
     d5c:	17 70       	andi	r17, 0x07	; 7
     d5e:	41 f0       	breq	.+16     	;  0xd70
     d60:	d6 95       	lsr	r29
     d62:	c7 95       	ror	r28
     d64:	57 95       	ror	r21
     d66:	47 95       	ror	r20
     d68:	f7 94       	ror	r15
     d6a:	e7 94       	ror	r14
     d6c:	1a 95       	dec	r17
     d6e:	c1 f7       	brne	.-16     	;  0xd60
     d70:	e5 ed       	ldi	r30, 0xD5	; 213
     d72:	f7 e0       	ldi	r31, 0x07	; 7
     d74:	68 94       	set
     d76:	15 90       	lpm	r1, Z+
     d78:	15 91       	lpm	r17, Z+
     d7a:	35 91       	lpm	r19, Z+
     d7c:	65 91       	lpm	r22, Z+
     d7e:	95 91       	lpm	r25, Z+
     d80:	05 90       	lpm	r0, Z+
     d82:	7f e2       	ldi	r23, 0x2F	; 47
     d84:	73 95       	inc	r23
     d86:	e1 18       	sub	r14, r1
     d88:	f1 0a       	sbc	r15, r17
     d8a:	43 0b       	sbc	r20, r19
     d8c:	56 0b       	sbc	r21, r22
     d8e:	c9 0b       	sbc	r28, r25
     d90:	d0 09       	sbc	r29, r0
     d92:	c0 f7       	brcc	.-16     	;  0xd84
     d94:	e1 0c       	add	r14, r1
     d96:	f1 1e       	adc	r15, r17
     d98:	43 1f       	adc	r20, r19
     d9a:	56 1f       	adc	r21, r22
     d9c:	c9 1f       	adc	r28, r25
     d9e:	d0 1d       	adc	r29, r0
     da0:	7e f4       	brtc	.+30     	;  0xdc0
     da2:	70 33       	cpi	r23, 0x30	; 48
     da4:	11 f4       	brne	.+4      	;  0xdaa
     da6:	8a 95       	dec	r24
     da8:	e6 cf       	rjmp	.-52     	;  0xd76
     daa:	e8 94       	clt
     dac:	01 50       	subi	r16, 0x01	; 1
     dae:	30 f0       	brcs	.+12     	;  0xdbc
     db0:	08 0f       	add	r16, r24
     db2:	0a f4       	brpl	.+2      	;  0xdb6
     db4:	00 27       	eor	r16, r16
     db6:	02 17       	cp	r16, r18
     db8:	08 f4       	brcc	.+2      	;  0xdbc
     dba:	20 2f       	mov	r18, r16
     dbc:	23 95       	inc	r18
     dbe:	02 2f       	mov	r16, r18
     dc0:	7a 33       	cpi	r23, 0x3A	; 58
     dc2:	28 f0       	brcs	.+10     	;  0xdce
     dc4:	79 e3       	ldi	r23, 0x39	; 57
     dc6:	7d 93       	st	X+, r23
     dc8:	2a 95       	dec	r18
     dca:	e9 f7       	brne	.-6      	;  0xdc6
     dcc:	10 c0       	rjmp	.+32     	;  0xdee
     dce:	7d 93       	st	X+, r23
     dd0:	2a 95       	dec	r18
     dd2:	89 f6       	brne	.-94     	;  0xd76
     dd4:	06 94       	lsr	r0
     dd6:	97 95       	ror	r25
     dd8:	67 95       	ror	r22
     dda:	37 95       	ror	r19
     ddc:	17 95       	ror	r17
     dde:	17 94       	ror	r1
     de0:	e1 18       	sub	r14, r1
     de2:	f1 0a       	sbc	r15, r17
     de4:	43 0b       	sbc	r20, r19
     de6:	56 0b       	sbc	r21, r22
     de8:	c9 0b       	sbc	r28, r25
     dea:	d0 09       	sbc	r29, r0
     dec:	98 f0       	brcs	.+38     	;  0xe14
     dee:	23 95       	inc	r18
     df0:	7e 91       	ld	r23, -X
     df2:	73 95       	inc	r23
     df4:	7a 33       	cpi	r23, 0x3A	; 58
     df6:	08 f0       	brcs	.+2      	;  0xdfa
     df8:	70 e3       	ldi	r23, 0x30	; 48
     dfa:	7c 93       	st	X, r23
     dfc:	20 13       	cpse	r18, r16
     dfe:	b8 f7       	brcc	.-18     	;  0xdee
     e00:	7e 91       	ld	r23, -X
     e02:	70 61       	ori	r23, 0x10	; 16
     e04:	7d 93       	st	X+, r23
     e06:	30 f0       	brcs	.+12     	;  0xe14
     e08:	83 95       	inc	r24
     e0a:	71 e3       	ldi	r23, 0x31	; 49
     e0c:	7d 93       	st	X+, r23
     e0e:	70 e3       	ldi	r23, 0x30	; 48
     e10:	2a 95       	dec	r18
     e12:	e1 f7       	brne	.-8      	;  0xe0c
     e14:	11 24       	eor	r1, r1
     e16:	ef 90       	pop	r14
     e18:	ff 90       	pop	r15
     e1a:	0f 91       	pop	r16
     e1c:	1f 91       	pop	r17
     e1e:	cf 91       	pop	r28
     e20:	df 91       	pop	r29
     e22:	99 27       	eor	r25, r25
     e24:	87 fd       	sbrc	r24, 7
     e26:	90 95       	com	r25
     e28:	08 95       	ret
     e2a:	ef 92       	push	r14
     e2c:	ff 92       	push	r15
     e2e:	0f 93       	push	r16
     e30:	1f 93       	push	r17
     e32:	88 e8       	ldi	r24, 0x88	; 136
     e34:	91 e0       	ldi	r25, 0x01	; 1
     e36:	0e 94 2a 08 	call	0x1054	;  0x1054
     e3a:	8b ef       	ldi	r24, 0xFB	; 251
     e3c:	91 e0       	ldi	r25, 0x01	; 1
     e3e:	68 e0       	ldi	r22, 0x08	; 8
     e40:	70 e0       	ldi	r23, 0x00	; 0
     e42:	49 e0       	ldi	r20, 0x09	; 9
     e44:	50 e0       	ldi	r21, 0x00	; 0
     e46:	2a e0       	ldi	r18, 0x0A	; 10
     e48:	30 e0       	ldi	r19, 0x00	; 0
     e4a:	0b e0       	ldi	r16, 0x0B	; 11
     e4c:	10 e0       	ldi	r17, 0x00	; 0
     e4e:	ec e0       	ldi	r30, 0x0C	; 12
     e50:	ee 2e       	mov	r14, r30
     e52:	f1 2c       	mov	r15, r1
     e54:	0e 94 a5 10 	call	0x214a	;  0x214a
     e58:	1f 91       	pop	r17
     e5a:	0f 91       	pop	r16
     e5c:	ff 90       	pop	r15
     e5e:	ef 90       	pop	r14
     e60:	08 95       	ret
     e62:	df 92       	push	r13
     e64:	ef 92       	push	r14
     e66:	ff 92       	push	r15
     e68:	0f 93       	push	r16
     e6a:	1f 93       	push	r17
     e6c:	df 93       	push	r29
     e6e:	cf 93       	push	r28
     e70:	cd b7       	in	r28, 0x3d	; 61
     e72:	de b7       	in	r29, 0x3e	; 62
     e74:	64 97       	sbiw	r28, 0x14	; 20
     e76:	0f b6       	in	r0, 0x3f	; 63
     e78:	f8 94       	cli
     e7a:	de bf       	out	0x3e, r29	; 62
     e7c:	0f be       	out	0x3f, r0	; 63
     e7e:	cd bf       	out	0x3d, r28	; 61
     e80:	0e 94 e1 13 	call	0x27c2	;  0x27c2
     e84:	7b 01       	movw	r14, r22
     e86:	8c 01       	movw	r16, r24
     e88:	dd 24       	eor	r13, r13
     e8a:	13 c0       	rjmp	.+38     	;  0xeb2
     e8c:	8d e9       	ldi	r24, 0x9D	; 157
     e8e:	94 e0       	ldi	r25, 0x04	; 4
     e90:	0e 94 91 12 	call	0x2522	;  0x2522
     e94:	68 2f       	mov	r22, r24
     e96:	88 e8       	ldi	r24, 0x88	; 136
     e98:	91 e0       	ldi	r25, 0x01	; 1
     e9a:	0e 94 0d 0d 	call	0x1a1a	;  0x1a1a
     e9e:	88 23       	and	r24, r24
     ea0:	11 f0       	breq	.+4      	;  0xea6
     ea2:	dd 24       	eor	r13, r13
     ea4:	d3 94       	inc	r13
     ea6:	8d e9       	ldi	r24, 0x9D	; 157
     ea8:	94 e0       	ldi	r25, 0x04	; 4
     eaa:	0e 94 60 12 	call	0x24c0	;  0x24c0
     eae:	89 2b       	or	r24, r25
     eb0:	69 f7       	brne	.-38     	;  0xe8c
     eb2:	0e 94 e1 13 	call	0x27c2	;  0x27c2
     eb6:	6e 19       	sub	r22, r14
     eb8:	7f 09       	sbc	r23, r15
     eba:	80 0b       	sbc	r24, r16
     ebc:	91 0b       	sbc	r25, r17
     ebe:	68 5e       	subi	r22, 0xE8	; 232
     ec0:	73 40       	sbci	r23, 0x03	; 3
     ec2:	80 40       	sbci	r24, 0x00	; 0
     ec4:	90 40       	sbci	r25, 0x00	; 0
     ec6:	78 f3       	brcs	.-34     	;  0xea6
     ec8:	dd 20       	and	r13, r13
     eca:	09 f4       	brne	.+2      	;  0xece
     ecc:	89 c0       	rjmp	.+274    	;  0xfe0
     ece:	88 e8       	ldi	r24, 0x88	; 136
     ed0:	91 e0       	ldi	r25, 0x01	; 1
     ed2:	be 01       	movw	r22, r28
     ed4:	67 5f       	subi	r22, 0xF7	; 247
     ed6:	7f 4f       	sbci	r23, 0xFF	; 255
     ed8:	ae 01       	movw	r20, r28
     eda:	43 5f       	subi	r20, 0xF3	; 243
     edc:	5f 4f       	sbci	r21, 0xFF	; 255
     ede:	9e 01       	movw	r18, r28
     ee0:	2f 5e       	subi	r18, 0xEF	; 239
     ee2:	3f 4f       	sbci	r19, 0xFF	; 255
     ee4:	0e 94 b5 0a 	call	0x156a	;  0x156a
     ee8:	8b ef       	ldi	r24, 0xFB	; 251
     eea:	91 e0       	ldi	r25, 0x01	; 1
     eec:	60 e0       	ldi	r22, 0x00	; 0
     eee:	71 e0       	ldi	r23, 0x01	; 1
     ef0:	41 e0       	ldi	r20, 0x01	; 1
     ef2:	50 e0       	ldi	r21, 0x00	; 0
     ef4:	20 e0       	ldi	r18, 0x00	; 0
     ef6:	30 e0       	ldi	r19, 0x00	; 0
     ef8:	0e 94 bf 0f 	call	0x1f7e	;  0x1f7e
     efc:	6d 85       	ldd	r22, Y+13	; 0x0d
     efe:	7e 85       	ldd	r23, Y+14	; 0x0e
     f00:	8f 85       	ldd	r24, Y+15	; 0x0f
     f02:	98 89       	ldd	r25, Y+16	; 0x10
     f04:	43 e0       	ldi	r20, 0x03	; 3
     f06:	26 e0       	ldi	r18, 0x06	; 6
     f08:	0b e0       	ldi	r16, 0x0B	; 11
     f0a:	14 e0       	ldi	r17, 0x04	; 4
     f0c:	0e 94 94 04 	call	0x928	;  0x928
     f10:	8b ef       	ldi	r24, 0xFB	; 251
     f12:	91 e0       	ldi	r25, 0x01	; 1
     f14:	b8 01       	movw	r22, r16
     f16:	48 e2       	ldi	r20, 0x28	; 40
     f18:	50 e0       	ldi	r21, 0x00	; 0
     f1a:	20 e0       	ldi	r18, 0x00	; 0
     f1c:	30 e0       	ldi	r19, 0x00	; 0
     f1e:	0e 94 bf 0f 	call	0x1f7e	;  0x1f7e
     f22:	8b ef       	ldi	r24, 0xFB	; 251
     f24:	91 e0       	ldi	r25, 0x01	; 1
     f26:	6a e0       	ldi	r22, 0x0A	; 10
     f28:	71 e0       	ldi	r23, 0x01	; 1
     f2a:	41 e0       	ldi	r20, 0x01	; 1
     f2c:	50 e0       	ldi	r21, 0x00	; 0
     f2e:	2a e0       	ldi	r18, 0x0A	; 10
     f30:	30 e0       	ldi	r19, 0x00	; 0
     f32:	0e 94 bf 0f 	call	0x1f7e	;  0x1f7e
     f36:	69 85       	ldd	r22, Y+9	; 0x09
     f38:	7a 85       	ldd	r23, Y+10	; 0x0a
     f3a:	8b 85       	ldd	r24, Y+11	; 0x0b
     f3c:	9c 85       	ldd	r25, Y+12	; 0x0c
     f3e:	43 e0       	ldi	r20, 0x03	; 3
     f40:	26 e0       	ldi	r18, 0x06	; 6
     f42:	0e 94 94 04 	call	0x928	;  0x928
     f46:	8b ef       	ldi	r24, 0xFB	; 251
     f48:	91 e0       	ldi	r25, 0x01	; 1
     f4a:	b8 01       	movw	r22, r16
     f4c:	48 e2       	ldi	r20, 0x28	; 40
     f4e:	50 e0       	ldi	r21, 0x00	; 0
     f50:	2a e0       	ldi	r18, 0x0A	; 10
     f52:	30 e0       	ldi	r19, 0x00	; 0
     f54:	0e 94 bf 0f 	call	0x1f7e	;  0x1f7e
     f58:	8b ef       	ldi	r24, 0xFB	; 251
     f5a:	91 e0       	ldi	r25, 0x01	; 1
     f5c:	63 e1       	ldi	r22, 0x13	; 19
     f5e:	71 e0       	ldi	r23, 0x01	; 1
     f60:	41 e0       	ldi	r20, 0x01	; 1
     f62:	50 e0       	ldi	r21, 0x00	; 0
     f64:	24 e1       	ldi	r18, 0x14	; 20
     f66:	30 e0       	ldi	r19, 0x00	; 0
     f68:	0e 94 bf 0f 	call	0x1f7e	;  0x1f7e
     f6c:	88 e8       	ldi	r24, 0x88	; 136
     f6e:	91 e0       	ldi	r25, 0x01	; 1
     f70:	0e 94 43 0a 	call	0x1486	;  0x1486
     f74:	43 e0       	ldi	r20, 0x03	; 3
     f76:	22 e0       	ldi	r18, 0x02	; 2
     f78:	0e 94 94 04 	call	0x928	;  0x928
     f7c:	8b ef       	ldi	r24, 0xFB	; 251
     f7e:	91 e0       	ldi	r25, 0x01	; 1
     f80:	b8 01       	movw	r22, r16
     f82:	4d e2       	ldi	r20, 0x2D	; 45
     f84:	50 e0       	ldi	r21, 0x00	; 0
     f86:	24 e1       	ldi	r18, 0x14	; 20
     f88:	30 e0       	ldi	r19, 0x00	; 0
     f8a:	0e 94 bf 0f 	call	0x1f7e	;  0x1f7e
     f8e:	8b ef       	ldi	r24, 0xFB	; 251
     f90:	91 e0       	ldi	r25, 0x01	; 1
     f92:	6e e1       	ldi	r22, 0x1E	; 30
     f94:	71 e0       	ldi	r23, 0x01	; 1
     f96:	41 e0       	ldi	r20, 0x01	; 1
     f98:	50 e0       	ldi	r21, 0x00	; 0
     f9a:	2e e1       	ldi	r18, 0x1E	; 30
     f9c:	30 e0       	ldi	r19, 0x00	; 0
     f9e:	0e 94 bf 0f 	call	0x1f7e	;  0x1f7e
     fa2:	88 e8       	ldi	r24, 0x88	; 136
     fa4:	91 e0       	ldi	r25, 0x01	; 1
     fa6:	0e 94 fd 09 	call	0x13fa	;  0x13fa
     faa:	43 e0       	ldi	r20, 0x03	; 3
     fac:	22 e0       	ldi	r18, 0x02	; 2
     fae:	0e 94 94 04 	call	0x928	;  0x928
     fb2:	8b ef       	ldi	r24, 0xFB	; 251
     fb4:	91 e0       	ldi	r25, 0x01	; 1
     fb6:	b8 01       	movw	r22, r16
     fb8:	4e e2       	ldi	r20, 0x2E	; 46
     fba:	50 e0       	ldi	r21, 0x00	; 0
     fbc:	2e e1       	ldi	r18, 0x1E	; 30
     fbe:	30 e0       	ldi	r19, 0x00	; 0
     fc0:	0e 94 bf 0f 	call	0x1f7e	;  0x1f7e
     fc4:	8b ef       	ldi	r24, 0xFB	; 251
     fc6:	91 e0       	ldi	r25, 0x01	; 1
     fc8:	6a e2       	ldi	r22, 0x2A	; 42
     fca:	71 e0       	ldi	r23, 0x01	; 1
     fcc:	41 e0       	ldi	r20, 0x01	; 1
     fce:	50 e0       	ldi	r21, 0x00	; 0
     fd0:	28 e2       	ldi	r18, 0x28	; 40
     fd2:	30 e0       	ldi	r19, 0x00	; 0
     fd4:	0e 94 bf 0f 	call	0x1f7e	;  0x1f7e
     fd8:	8b ef       	ldi	r24, 0xFB	; 251
     fda:	91 e0       	ldi	r25, 0x01	; 1
     fdc:	0e 94 d8 0d 	call	0x1bb0	;  0x1bb0
     fe0:	88 e8       	ldi	r24, 0x88	; 136
     fe2:	91 e0       	ldi	r25, 0x01	; 1
     fe4:	be 01       	movw	r22, r28
     fe6:	6b 5f       	subi	r22, 0xFB	; 251
     fe8:	7f 4f       	sbci	r23, 0xFF	; 255
     fea:	ae 01       	movw	r20, r28
     fec:	4f 5f       	subi	r20, 0xFF	; 255
     fee:	5f 4f       	sbci	r21, 0xFF	; 255
     ff0:	9e 01       	movw	r18, r28
     ff2:	2d 5f       	subi	r18, 0xFD	; 253
     ff4:	3f 4f       	sbci	r19, 0xFF	; 255
     ff6:	0e 94 77 08 	call	0x10ee	;  0x10ee
     ffa:	68 ee       	ldi	r22, 0xE8	; 232
     ffc:	73 e0       	ldi	r23, 0x03	; 3
     ffe:	80 e0       	ldi	r24, 0x00	; 0
    1000:	90 e0       	ldi	r25, 0x00	; 0
    1002:	0e 94 15 14 	call	0x282a	;  0x282a
    1006:	64 96       	adiw	r28, 0x14	; 20
    1008:	0f b6       	in	r0, 0x3f	; 63
    100a:	f8 94       	cli
    100c:	de bf       	out	0x3e, r29	; 62
    100e:	0f be       	out	0x3f, r0	; 63
    1010:	cd bf       	out	0x3d, r28	; 61
    1012:	cf 91       	pop	r28
    1014:	df 91       	pop	r29
    1016:	1f 91       	pop	r17
    1018:	0f 91       	pop	r16
    101a:	ff 90       	pop	r15
    101c:	ef 90       	pop	r14
    101e:	df 90       	pop	r13
    1020:	08 95       	ret
    1022:	0f 93       	push	r16
    1024:	1f 93       	push	r17
    1026:	0b ef       	ldi	r16, 0xFB	; 251
    1028:	11 e0       	ldi	r17, 0x01	; 1
    102a:	c8 01       	movw	r24, r16
    102c:	66 e4       	ldi	r22, 0x46	; 70
    102e:	70 e0       	ldi	r23, 0x00	; 0
    1030:	0e 94 2d 10 	call	0x205a	;  0x205a
    1034:	c8 01       	movw	r24, r16
    1036:	6a e5       	ldi	r22, 0x5A	; 90
    1038:	76 e0       	ldi	r23, 0x06	; 6
    103a:	0e 94 a3 0f 	call	0x1f46	;  0x1f46
    103e:	8d e9       	ldi	r24, 0x9D	; 157
    1040:	94 e0       	ldi	r25, 0x04	; 4
    1042:	40 ec       	ldi	r20, 0xC0	; 192
    1044:	52 e1       	ldi	r21, 0x12	; 18
    1046:	60 e0       	ldi	r22, 0x00	; 0
    1048:	70 e0       	ldi	r23, 0x00	; 0
    104a:	0e 94 d9 11 	call	0x23b2	;  0x23b2
    104e:	1f 91       	pop	r17
    1050:	0f 91       	pop	r16
    1052:	08 95       	ret
    1054:	fc 01       	movw	r30, r24
    1056:	2f ef       	ldi	r18, 0xFF	; 255
    1058:	3f ef       	ldi	r19, 0xFF	; 255
    105a:	4f ef       	ldi	r20, 0xFF	; 255
    105c:	5f ef       	ldi	r21, 0xFF	; 255
    105e:	20 83       	st	Z, r18
    1060:	31 83       	std	Z+1, r19	; 0x01
    1062:	42 83       	std	Z+2, r20	; 0x02
    1064:	53 83       	std	Z+3, r21	; 0x03
    1066:	10 86       	std	Z+8, r1	; 0x08
    1068:	11 86       	std	Z+9, r1	; 0x09
    106a:	12 86       	std	Z+10, r1	; 0x0a
    106c:	13 86       	std	Z+11, r1	; 0x0b
    106e:	8f ef       	ldi	r24, 0xFF	; 255
    1070:	99 ec       	ldi	r25, 0xC9	; 201
    1072:	aa e9       	ldi	r26, 0x9A	; 154
    1074:	bb e3       	ldi	r27, 0x3B	; 59
    1076:	80 8b       	std	Z+16, r24	; 0x10
    1078:	91 8b       	std	Z+17, r25	; 0x11
    107a:	a2 8b       	std	Z+18, r26	; 0x12
    107c:	b3 8b       	std	Z+19, r27	; 0x13
    107e:	80 8f       	std	Z+24, r24	; 0x18
    1080:	91 8f       	std	Z+25, r25	; 0x19
    1082:	a2 8f       	std	Z+26, r26	; 0x1a
    1084:	b3 8f       	std	Z+27, r27	; 0x1b
    1086:	80 a3       	std	Z+32, r24	; 0x20
    1088:	91 a3       	std	Z+33, r25	; 0x21
    108a:	a2 a3       	std	Z+34, r26	; 0x22
    108c:	b3 a3       	std	Z+35, r27	; 0x23
    108e:	80 a7       	std	Z+40, r24	; 0x28
    1090:	91 a7       	std	Z+41, r25	; 0x29
    1092:	a2 a7       	std	Z+42, r26	; 0x2a
    1094:	b3 a7       	std	Z+43, r27	; 0x2b
    1096:	80 ab       	std	Z+48, r24	; 0x30
    1098:	91 ab       	std	Z+49, r25	; 0x31
    109a:	a2 ab       	std	Z+50, r26	; 0x32
    109c:	b3 ab       	std	Z+51, r27	; 0x33
    109e:	20 af       	std	Z+56, r18	; 0x38
    10a0:	31 af       	std	Z+57, r19	; 0x39
    10a2:	42 af       	std	Z+58, r20	; 0x3a
    10a4:	53 af       	std	Z+59, r21	; 0x3b
    10a6:	e0 5c       	subi	r30, 0xC0	; 192
    10a8:	ff 4f       	sbci	r31, 0xFF	; 255
    10aa:	8f ef       	ldi	r24, 0xFF	; 255
    10ac:	90 e0       	ldi	r25, 0x00	; 0
    10ae:	91 83       	std	Z+1, r25	; 0x01
    10b0:	80 83       	st	Z, r24
    10b2:	34 96       	adiw	r30, 0x04	; 4
    10b4:	20 83       	st	Z, r18
    10b6:	31 83       	std	Z+1, r19	; 0x01
    10b8:	42 83       	std	Z+2, r20	; 0x02
    10ba:	53 83       	std	Z+3, r21	; 0x03
    10bc:	38 96       	adiw	r30, 0x08	; 8
    10be:	20 83       	st	Z, r18
    10c0:	31 83       	std	Z+1, r19	; 0x01
    10c2:	42 83       	std	Z+2, r20	; 0x02
    10c4:	53 83       	std	Z+3, r21	; 0x03
    10c6:	38 96       	adiw	r30, 0x08	; 8
    10c8:	11 92       	st	Z+, r1
    10ca:	10 82       	st	Z, r1
    10cc:	70 96       	adiw	r30, 0x10	; 16
    10ce:	82 e0       	ldi	r24, 0x02	; 2
    10d0:	81 93       	st	Z+, r24
    10d2:	11 92       	st	Z+, r1
    10d4:	11 92       	st	Z+, r1
    10d6:	11 92       	st	Z+, r1
    10d8:	11 92       	st	Z+, r1
    10da:	11 92       	st	Z+, r1
    10dc:	11 92       	st	Z+, r1
    10de:	11 92       	st	Z+, r1
    10e0:	11 92       	st	Z+, r1
    10e2:	11 92       	st	Z+, r1
    10e4:	11 82       	std	Z+1, r1	; 0x01
    10e6:	10 82       	st	Z, r1
    10e8:	79 97       	sbiw	r30, 0x19	; 25
    10ea:	10 82       	st	Z, r1
    10ec:	08 95       	ret
    10ee:	cf 93       	push	r28
    10f0:	df 93       	push	r29
    10f2:	fc 01       	movw	r30, r24
    10f4:	eb 01       	movw	r28, r22
    10f6:	61 15       	cp	r22, r1
    10f8:	71 05       	cpc	r23, r1
    10fa:	61 f0       	breq	.+24     	;  0x1114
    10fc:	e7 59       	subi	r30, 0x97	; 151
    10fe:	ff 4f       	sbci	r31, 0xFF	; 255
    1100:	80 81       	ld	r24, Z
    1102:	91 81       	ldd	r25, Z+1	; 0x01
    1104:	a2 81       	ldd	r26, Z+2	; 0x02
    1106:	b3 81       	ldd	r27, Z+3	; 0x03
    1108:	e9 56       	subi	r30, 0x69	; 105
    110a:	f0 40       	sbci	r31, 0x00	; 0
    110c:	88 83       	st	Y, r24
    110e:	99 83       	std	Y+1, r25	; 0x01
    1110:	aa 83       	std	Y+2, r26	; 0x02
    1112:	bb 83       	std	Y+3, r27	; 0x03
    1114:	41 15       	cp	r20, r1
    1116:	51 05       	cpc	r21, r1
    1118:	49 f0       	breq	.+18     	;  0x112c
    111a:	e3 59       	subi	r30, 0x93	; 147
    111c:	ff 4f       	sbci	r31, 0xFF	; 255
    111e:	80 81       	ld	r24, Z
    1120:	91 81       	ldd	r25, Z+1	; 0x01
    1122:	ed 56       	subi	r30, 0x6D	; 109
    1124:	f0 40       	sbci	r31, 0x00	; 0
    1126:	da 01       	movw	r26, r20
    1128:	8d 93       	st	X+, r24
    112a:	9c 93       	st	X, r25
    112c:	21 15       	cp	r18, r1
    112e:	31 05       	cpc	r19, r1
    1130:	39 f0       	breq	.+14     	;  0x1140
    1132:	e1 59       	subi	r30, 0x91	; 145
    1134:	ff 4f       	sbci	r31, 0xFF	; 255
    1136:	80 81       	ld	r24, Z
    1138:	91 81       	ldd	r25, Z+1	; 0x01
    113a:	f9 01       	movw	r30, r18
    113c:	91 83       	std	Z+1, r25	; 0x01
    113e:	80 83       	st	Z, r24
    1140:	df 91       	pop	r29
    1142:	cf 91       	pop	r28
    1144:	08 95       	ret
    1146:	26 2f       	mov	r18, r22
    1148:	86 2f       	mov	r24, r22
    114a:	81 54       	subi	r24, 0x41	; 65
    114c:	86 30       	cpi	r24, 0x06	; 6
    114e:	30 f4       	brcc	.+12     	;  0x115c
    1150:	77 27       	eor	r23, r23
    1152:	67 fd       	sbrc	r22, 7
    1154:	70 95       	com	r23
    1156:	67 53       	subi	r22, 0x37	; 55
    1158:	70 40       	sbci	r23, 0x00	; 0
    115a:	0b c0       	rjmp	.+22     	;  0x1172
    115c:	77 27       	eor	r23, r23
    115e:	67 fd       	sbrc	r22, 7
    1160:	70 95       	com	r23
    1162:	21 56       	subi	r18, 0x61	; 97
    1164:	26 30       	cpi	r18, 0x06	; 6
    1166:	18 f4       	brcc	.+6      	;  0x116e
    1168:	67 55       	subi	r22, 0x57	; 87
    116a:	70 40       	sbci	r23, 0x00	; 0
    116c:	02 c0       	rjmp	.+4      	;  0x1172
    116e:	60 53       	subi	r22, 0x30	; 48
    1170:	70 40       	sbci	r23, 0x00	; 0
    1172:	cb 01       	movw	r24, r22
    1174:	08 95       	ret
    1176:	ef 92       	push	r14
    1178:	ff 92       	push	r15
    117a:	0f 93       	push	r16
    117c:	1f 93       	push	r17
    117e:	cf 93       	push	r28
    1180:	df 93       	push	r29
    1182:	9c 01       	movw	r18, r24
    1184:	ee 24       	eor	r14, r14
    1186:	fc 01       	movw	r30, r24
    1188:	ea 5a       	subi	r30, 0xAA	; 170
    118a:	ff 4f       	sbci	r31, 0xFF	; 255
    118c:	80 81       	ld	r24, Z
    118e:	8d 32       	cpi	r24, 0x2D	; 45
    1190:	31 f4       	brne	.+12     	;  0x119e
    1192:	ee 24       	eor	r14, r14
    1194:	e3 94       	inc	r14
    1196:	e9 01       	movw	r28, r18
    1198:	c9 5a       	subi	r28, 0xA9	; 169
    119a:	df 4f       	sbci	r29, 0xFF	; 255
    119c:	01 c0       	rjmp	.+2      	;  0x11a0
    119e:	ef 01       	movw	r28, r30
    11a0:	8e 01       	movw	r16, r28
    11a2:	20 e0       	ldi	r18, 0x00	; 0
    11a4:	30 e0       	ldi	r19, 0x00	; 0
    11a6:	40 e0       	ldi	r20, 0x00	; 0
    11a8:	50 e0       	ldi	r21, 0x00	; 0
    11aa:	18 c0       	rjmp	.+48     	;  0x11dc
    11ac:	ca 01       	movw	r24, r20
    11ae:	b9 01       	movw	r22, r18
    11b0:	2a e0       	ldi	r18, 0x0A	; 10
    11b2:	30 e0       	ldi	r19, 0x00	; 0
    11b4:	40 e0       	ldi	r20, 0x00	; 0
    11b6:	50 e0       	ldi	r21, 0x00	; 0
    11b8:	0e 94 36 16 	call	0x2c6c	;  0x2c6c
    11bc:	2f 2d       	mov	r18, r15
    11be:	33 27       	eor	r19, r19
    11c0:	27 fd       	sbrc	r18, 7
    11c2:	30 95       	com	r19
    11c4:	43 2f       	mov	r20, r19
    11c6:	53 2f       	mov	r21, r19
    11c8:	20 53       	subi	r18, 0x30	; 48
    11ca:	30 40       	sbci	r19, 0x00	; 0
    11cc:	40 40       	sbci	r20, 0x00	; 0
    11ce:	50 40       	sbci	r21, 0x00	; 0
    11d0:	26 0f       	add	r18, r22
    11d2:	37 1f       	adc	r19, r23
    11d4:	48 1f       	adc	r20, r24
    11d6:	59 1f       	adc	r21, r25
    11d8:	0f 5f       	subi	r16, 0xFF	; 255
    11da:	1f 4f       	sbci	r17, 0xFF	; 255
    11dc:	f8 01       	movw	r30, r16
    11de:	f0 80       	ld	r15, Z
    11e0:	8f 2d       	mov	r24, r15
    11e2:	80 53       	subi	r24, 0x30	; 48
    11e4:	8a 30       	cpi	r24, 0x0A	; 10
    11e6:	10 f3       	brcs	.-60     	;  0x11ac
    11e8:	ca 01       	movw	r24, r20
    11ea:	b9 01       	movw	r22, r18
    11ec:	24 e6       	ldi	r18, 0x64	; 100
    11ee:	30 e0       	ldi	r19, 0x00	; 0
    11f0:	40 e0       	ldi	r20, 0x00	; 0
    11f2:	50 e0       	ldi	r21, 0x00	; 0
    11f4:	0e 94 36 16 	call	0x2c6c	;  0x2c6c
    11f8:	9b 01       	movw	r18, r22
    11fa:	ac 01       	movw	r20, r24
    11fc:	01 c0       	rjmp	.+2      	;  0x1200
    11fe:	21 96       	adiw	r28, 0x01	; 1
    1200:	98 81       	ld	r25, Y
    1202:	89 2f       	mov	r24, r25
    1204:	80 53       	subi	r24, 0x30	; 48
    1206:	8a 30       	cpi	r24, 0x0A	; 10
    1208:	d0 f3       	brcs	.-12     	;  0x11fe
    120a:	9e 32       	cpi	r25, 0x2E	; 46
    120c:	29 f5       	brne	.+74     	;  0x1258
    120e:	99 81       	ldd	r25, Y+1	; 0x01
    1210:	89 2f       	mov	r24, r25
    1212:	80 53       	subi	r24, 0x30	; 48
    1214:	8a 30       	cpi	r24, 0x0A	; 10
    1216:	00 f5       	brcc	.+64     	;  0x1258
    1218:	8a e0       	ldi	r24, 0x0A	; 10
    121a:	98 02       	muls	r25, r24
    121c:	c0 01       	movw	r24, r0
    121e:	11 24       	eor	r1, r1
    1220:	80 5e       	subi	r24, 0xE0	; 224
    1222:	91 40       	sbci	r25, 0x01	; 1
    1224:	aa 27       	eor	r26, r26
    1226:	97 fd       	sbrc	r25, 7
    1228:	a0 95       	com	r26
    122a:	ba 2f       	mov	r27, r26
    122c:	28 0f       	add	r18, r24
    122e:	39 1f       	adc	r19, r25
    1230:	4a 1f       	adc	r20, r26
    1232:	5b 1f       	adc	r21, r27
    1234:	9a 81       	ldd	r25, Y+2	; 0x02
    1236:	89 2f       	mov	r24, r25
    1238:	80 53       	subi	r24, 0x30	; 48
    123a:	8a 30       	cpi	r24, 0x0A	; 10
    123c:	68 f4       	brcc	.+26     	;  0x1258
    123e:	89 2f       	mov	r24, r25
    1240:	99 27       	eor	r25, r25
    1242:	87 fd       	sbrc	r24, 7
    1244:	90 95       	com	r25
    1246:	c0 97       	sbiw	r24, 0x30	; 48
    1248:	aa 27       	eor	r26, r26
    124a:	97 fd       	sbrc	r25, 7
    124c:	a0 95       	com	r26
    124e:	ba 2f       	mov	r27, r26
    1250:	28 0f       	add	r18, r24
    1252:	39 1f       	adc	r19, r25
    1254:	4a 1f       	adc	r20, r26
    1256:	5b 1f       	adc	r21, r27
    1258:	ee 20       	and	r14, r14
    125a:	39 f0       	breq	.+14     	;  0x126a
    125c:	50 95       	com	r21
    125e:	40 95       	com	r20
    1260:	30 95       	com	r19
    1262:	21 95       	neg	r18
    1264:	3f 4f       	sbci	r19, 0xFF	; 255
    1266:	4f 4f       	sbci	r20, 0xFF	; 255
    1268:	5f 4f       	sbci	r21, 0xFF	; 255
    126a:	b9 01       	movw	r22, r18
    126c:	ca 01       	movw	r24, r20
    126e:	df 91       	pop	r29
    1270:	cf 91       	pop	r28
    1272:	1f 91       	pop	r17
    1274:	0f 91       	pop	r16
    1276:	ff 90       	pop	r15
    1278:	ef 90       	pop	r14
    127a:	08 95       	ret
    127c:	4f 92       	push	r4
    127e:	5f 92       	push	r5
    1280:	6f 92       	push	r6
    1282:	7f 92       	push	r7
    1284:	8f 92       	push	r8
    1286:	9f 92       	push	r9
    1288:	af 92       	push	r10
    128a:	bf 92       	push	r11
    128c:	cf 92       	push	r12
    128e:	df 92       	push	r13
    1290:	ef 92       	push	r14
    1292:	ff 92       	push	r15
    1294:	0f 93       	push	r16
    1296:	1f 93       	push	r17
    1298:	cf 93       	push	r28
    129a:	df 93       	push	r29
    129c:	26 e5       	ldi	r18, 0x56	; 86
    129e:	82 2e       	mov	r8, r18
    12a0:	91 2c       	mov	r9, r1
    12a2:	88 0e       	add	r8, r24
    12a4:	99 1e       	adc	r9, r25
    12a6:	e4 01       	movw	r28, r8
    12a8:	20 e0       	ldi	r18, 0x00	; 0
    12aa:	30 e0       	ldi	r19, 0x00	; 0
    12ac:	40 e0       	ldi	r20, 0x00	; 0
    12ae:	50 e0       	ldi	r21, 0x00	; 0
    12b0:	17 c0       	rjmp	.+46     	;  0x12e0
    12b2:	ca 01       	movw	r24, r20
    12b4:	b9 01       	movw	r22, r18
    12b6:	2a e0       	ldi	r18, 0x0A	; 10
    12b8:	30 e0       	ldi	r19, 0x00	; 0
    12ba:	40 e0       	ldi	r20, 0x00	; 0
    12bc:	50 e0       	ldi	r21, 0x00	; 0
    12be:	0e 94 36 16 	call	0x2c6c	;  0x2c6c
    12c2:	21 2f       	mov	r18, r17
    12c4:	33 27       	eor	r19, r19
    12c6:	27 fd       	sbrc	r18, 7
    12c8:	30 95       	com	r19
    12ca:	43 2f       	mov	r20, r19
    12cc:	53 2f       	mov	r21, r19
    12ce:	20 53       	subi	r18, 0x30	; 48
    12d0:	30 40       	sbci	r19, 0x00	; 0
    12d2:	40 40       	sbci	r20, 0x00	; 0
    12d4:	50 40       	sbci	r21, 0x00	; 0
    12d6:	26 0f       	add	r18, r22
    12d8:	37 1f       	adc	r19, r23
    12da:	48 1f       	adc	r20, r24
    12dc:	59 1f       	adc	r21, r25
    12de:	21 96       	adiw	r28, 0x01	; 1
    12e0:	18 81       	ld	r17, Y
    12e2:	81 2f       	mov	r24, r17
    12e4:	80 53       	subi	r24, 0x30	; 48
    12e6:	8a 30       	cpi	r24, 0x0A	; 10
    12e8:	20 f3       	brcs	.-56     	;  0x12b2
    12ea:	72 2e       	mov	r7, r18
    12ec:	63 2e       	mov	r6, r19
    12ee:	54 2e       	mov	r5, r20
    12f0:	45 2e       	mov	r4, r21
    12f2:	b9 01       	movw	r22, r18
    12f4:	ca 01       	movw	r24, r20
    12f6:	24 e6       	ldi	r18, 0x64	; 100
    12f8:	30 e0       	ldi	r19, 0x00	; 0
    12fa:	40 e0       	ldi	r20, 0x00	; 0
    12fc:	50 e0       	ldi	r21, 0x00	; 0
    12fe:	0e 94 68 16 	call	0x2cd0	;  0x2cd0
    1302:	20 ea       	ldi	r18, 0xA0	; 160
    1304:	36 e8       	ldi	r19, 0x86	; 134
    1306:	41 e0       	ldi	r20, 0x01	; 1
    1308:	50 e0       	ldi	r21, 0x00	; 0
    130a:	0e 94 36 16 	call	0x2c6c	;  0x2c6c
    130e:	5b 01       	movw	r10, r22
    1310:	6c 01       	movw	r12, r24
    1312:	03 c0       	rjmp	.+6      	;  0x131a
    1314:	08 94       	sec
    1316:	81 1c       	adc	r8, r1
    1318:	91 1c       	adc	r9, r1
    131a:	d4 01       	movw	r26, r8
    131c:	9c 91       	ld	r25, X
    131e:	89 2f       	mov	r24, r25
    1320:	80 53       	subi	r24, 0x30	; 48
    1322:	8a 30       	cpi	r24, 0x0A	; 10
    1324:	b8 f3       	brcs	.-18     	;  0x1314
    1326:	9e 32       	cpi	r25, 0x2E	; 46
    1328:	69 f5       	brne	.+90     	;  0x1384
    132a:	80 e1       	ldi	r24, 0x10	; 16
    132c:	e8 2e       	mov	r14, r24
    132e:	87 e2       	ldi	r24, 0x27	; 39
    1330:	f8 2e       	mov	r15, r24
    1332:	01 2d       	mov	r16, r1
    1334:	11 2d       	mov	r17, r1
    1336:	1d c0       	rjmp	.+58     	;  0x1372
    1338:	33 27       	eor	r19, r19
    133a:	27 fd       	sbrc	r18, 7
    133c:	30 95       	com	r19
    133e:	20 53       	subi	r18, 0x30	; 48
    1340:	30 40       	sbci	r19, 0x00	; 0
    1342:	44 27       	eor	r20, r20
    1344:	37 fd       	sbrc	r19, 7
    1346:	40 95       	com	r20
    1348:	54 2f       	mov	r21, r20
    134a:	c8 01       	movw	r24, r16
    134c:	b7 01       	movw	r22, r14
    134e:	0e 94 36 16 	call	0x2c6c	;  0x2c6c
    1352:	a6 0e       	add	r10, r22
    1354:	b7 1e       	adc	r11, r23
    1356:	c8 1e       	adc	r12, r24
    1358:	d9 1e       	adc	r13, r25
    135a:	c8 01       	movw	r24, r16
    135c:	b7 01       	movw	r22, r14
    135e:	2a e0       	ldi	r18, 0x0A	; 10
    1360:	30 e0       	ldi	r19, 0x00	; 0
    1362:	40 e0       	ldi	r20, 0x00	; 0
    1364:	50 e0       	ldi	r21, 0x00	; 0
    1366:	0e 94 68 16 	call	0x2cd0	;  0x2cd0
    136a:	c9 01       	movw	r24, r18
    136c:	da 01       	movw	r26, r20
    136e:	7c 01       	movw	r14, r24
    1370:	8d 01       	movw	r16, r26
    1372:	08 94       	sec
    1374:	81 1c       	adc	r8, r1
    1376:	91 1c       	adc	r9, r1
    1378:	f4 01       	movw	r30, r8
    137a:	20 81       	ld	r18, Z
    137c:	82 2f       	mov	r24, r18
    137e:	80 53       	subi	r24, 0x30	; 48
    1380:	8a 30       	cpi	r24, 0x0A	; 10
    1382:	d0 f2       	brcs	.-76     	;  0x1338
    1384:	83 e0       	ldi	r24, 0x03	; 3
    1386:	90 e0       	ldi	r25, 0x00	; 0
    1388:	a0 e0       	ldi	r26, 0x00	; 0
    138a:	b0 e0       	ldi	r27, 0x00	; 0
    138c:	a8 0e       	add	r10, r24
    138e:	b9 1e       	adc	r11, r25
    1390:	ca 1e       	adc	r12, r26
    1392:	db 1e       	adc	r13, r27
    1394:	c6 01       	movw	r24, r12
    1396:	b5 01       	movw	r22, r10
    1398:	26 e0       	ldi	r18, 0x06	; 6
    139a:	30 e0       	ldi	r19, 0x00	; 0
    139c:	40 e0       	ldi	r20, 0x00	; 0
    139e:	50 e0       	ldi	r21, 0x00	; 0
    13a0:	0e 94 68 16 	call	0x2cd0	;  0x2cd0
    13a4:	79 01       	movw	r14, r18
    13a6:	8a 01       	movw	r16, r20
    13a8:	67 2d       	mov	r22, r7
    13aa:	76 2d       	mov	r23, r6
    13ac:	85 2d       	mov	r24, r5
    13ae:	94 2d       	mov	r25, r4
    13b0:	24 e6       	ldi	r18, 0x64	; 100
    13b2:	30 e0       	ldi	r19, 0x00	; 0
    13b4:	40 e0       	ldi	r20, 0x00	; 0
    13b6:	50 e0       	ldi	r21, 0x00	; 0
    13b8:	0e 94 68 16 	call	0x2cd0	;  0x2cd0
    13bc:	ca 01       	movw	r24, r20
    13be:	b9 01       	movw	r22, r18
    13c0:	20 e4       	ldi	r18, 0x40	; 64
    13c2:	32 e4       	ldi	r19, 0x42	; 66
    13c4:	4f e0       	ldi	r20, 0x0F	; 15
    13c6:	50 e0       	ldi	r21, 0x00	; 0
    13c8:	0e 94 36 16 	call	0x2c6c	;  0x2c6c
    13cc:	e6 0e       	add	r14, r22
    13ce:	f7 1e       	adc	r15, r23
    13d0:	08 1f       	adc	r16, r24
    13d2:	19 1f       	adc	r17, r25
    13d4:	b7 01       	movw	r22, r14
    13d6:	c8 01       	movw	r24, r16
    13d8:	df 91       	pop	r29
    13da:	cf 91       	pop	r28
    13dc:	1f 91       	pop	r17
    13de:	0f 91       	pop	r16
    13e0:	ff 90       	pop	r15
    13e2:	ef 90       	pop	r14
    13e4:	df 90       	pop	r13
    13e6:	cf 90       	pop	r12
    13e8:	bf 90       	pop	r11
    13ea:	af 90       	pop	r10
    13ec:	9f 90       	pop	r9
    13ee:	8f 90       	pop	r8
    13f0:	7f 90       	pop	r7
    13f2:	6f 90       	pop	r6
    13f4:	5f 90       	pop	r5
    13f6:	4f 90       	pop	r4
    13f8:	08 95       	ret
    13fa:	fc 01       	movw	r30, r24
    13fc:	60 a1       	ldd	r22, Z+32	; 0x20
    13fe:	71 a1       	ldd	r23, Z+33	; 0x21
    1400:	82 a1       	ldd	r24, Z+34	; 0x22
    1402:	93 a1       	ldd	r25, Z+35	; 0x23
    1404:	6f 3f       	cpi	r22, 0xFF	; 255
    1406:	f9 ec       	ldi	r31, 0xC9	; 201
    1408:	7f 07       	cpc	r23, r31
    140a:	fa e9       	ldi	r31, 0x9A	; 154
    140c:	8f 07       	cpc	r24, r31
    140e:	fb e3       	ldi	r31, 0x3B	; 59
    1410:	9f 07       	cpc	r25, r31
    1412:	29 f4       	brne	.+10     	;  0x141e
    1414:	e0 e0       	ldi	r30, 0x00	; 0
    1416:	74 e2       	ldi	r23, 0x24	; 36
    1418:	84 e7       	ldi	r24, 0x74	; 116
    141a:	69 e4       	ldi	r22, 0x49	; 73
    141c:	0a c0       	rjmp	.+20     	;  0x1432
    141e:	0e 94 23 15 	call	0x2a46	;  0x2a46
    1422:	20 e0       	ldi	r18, 0x00	; 0
    1424:	30 e0       	ldi	r19, 0x00	; 0
    1426:	48 ec       	ldi	r20, 0xC8	; 200
    1428:	52 e4       	ldi	r21, 0x42	; 66
    142a:	0e 94 b9 14 	call	0x2972	;  0x2972
    142e:	e6 2f       	mov	r30, r22
    1430:	69 2f       	mov	r22, r25
    1432:	2e 2f       	mov	r18, r30
    1434:	37 2f       	mov	r19, r23
    1436:	48 2f       	mov	r20, r24
    1438:	56 2f       	mov	r21, r22
    143a:	b9 01       	movw	r22, r18
    143c:	ca 01       	movw	r24, r20
    143e:	08 95       	ret
    1440:	fc 01       	movw	r30, r24
    1442:	60 a5       	ldd	r22, Z+40	; 0x28
    1444:	71 a5       	ldd	r23, Z+41	; 0x29
    1446:	82 a5       	ldd	r24, Z+42	; 0x2a
    1448:	93 a5       	ldd	r25, Z+43	; 0x2b
    144a:	6f 3f       	cpi	r22, 0xFF	; 255
    144c:	f9 ec       	ldi	r31, 0xC9	; 201
    144e:	7f 07       	cpc	r23, r31
    1450:	fa e9       	ldi	r31, 0x9A	; 154
    1452:	8f 07       	cpc	r24, r31
    1454:	fb e3       	ldi	r31, 0x3B	; 59
    1456:	9f 07       	cpc	r25, r31
    1458:	29 f4       	brne	.+10     	;  0x1464
    145a:	e0 e0       	ldi	r30, 0x00	; 0
    145c:	70 e0       	ldi	r23, 0x00	; 0
    145e:	80 e8       	ldi	r24, 0x80	; 128
    1460:	6f eb       	ldi	r22, 0xBF	; 191
    1462:	0a c0       	rjmp	.+20     	;  0x1478
    1464:	0e 94 21 15 	call	0x2a42	;  0x2a42
    1468:	20 e0       	ldi	r18, 0x00	; 0
    146a:	30 e0       	ldi	r19, 0x00	; 0
    146c:	48 ec       	ldi	r20, 0xC8	; 200
    146e:	52 e4       	ldi	r21, 0x42	; 66
    1470:	0e 94 b9 14 	call	0x2972	;  0x2972
    1474:	e6 2f       	mov	r30, r22
    1476:	69 2f       	mov	r22, r25
    1478:	2e 2f       	mov	r18, r30
    147a:	37 2f       	mov	r19, r23
    147c:	48 2f       	mov	r20, r24
    147e:	56 2f       	mov	r21, r22
    1480:	b9 01       	movw	r22, r18
    1482:	ca 01       	movw	r24, r20
    1484:	08 95       	ret
    1486:	ef 92       	push	r14
    1488:	ff 92       	push	r15
    148a:	0f 93       	push	r16
    148c:	1f 93       	push	r17
    148e:	0e 94 20 0a 	call	0x1440	;  0x1440
    1492:	7b 01       	movw	r14, r22
    1494:	8c 01       	movw	r16, r24
    1496:	20 e0       	ldi	r18, 0x00	; 0
    1498:	30 e0       	ldi	r19, 0x00	; 0
    149a:	40 e8       	ldi	r20, 0x80	; 128
    149c:	5f eb       	ldi	r21, 0xBF	; 191
    149e:	0e 94 b5 14 	call	0x296a	;  0x296a
    14a2:	88 23       	and	r24, r24
    14a4:	29 f4       	brne	.+10     	;  0x14b0
    14a6:	e0 e0       	ldi	r30, 0x00	; 0
    14a8:	70 e0       	ldi	r23, 0x00	; 0
    14aa:	80 e8       	ldi	r24, 0x80	; 128
    14ac:	6f eb       	ldi	r22, 0xBF	; 191
    14ae:	0a c0       	rjmp	.+20     	;  0x14c4
    14b0:	c8 01       	movw	r24, r16
    14b2:	b7 01       	movw	r22, r14
    14b4:	26 e5       	ldi	r18, 0x56	; 86
    14b6:	3e e0       	ldi	r19, 0x0E	; 14
    14b8:	4d ee       	ldi	r20, 0xED	; 237
    14ba:	5f e3       	ldi	r21, 0x3F	; 63
    14bc:	0e 94 d3 15 	call	0x2ba6	;  0x2ba6
    14c0:	e6 2f       	mov	r30, r22
    14c2:	69 2f       	mov	r22, r25
    14c4:	2e 2f       	mov	r18, r30
    14c6:	37 2f       	mov	r19, r23
    14c8:	48 2f       	mov	r20, r24
    14ca:	56 2f       	mov	r21, r22
    14cc:	b9 01       	movw	r22, r18
    14ce:	ca 01       	movw	r24, r20
    14d0:	1f 91       	pop	r17
    14d2:	0f 91       	pop	r16
    14d4:	ff 90       	pop	r15
    14d6:	ef 90       	pop	r14
    14d8:	08 95       	ret
    14da:	0f 93       	push	r16
    14dc:	1f 93       	push	r17
    14de:	cf 93       	push	r28
    14e0:	df 93       	push	r29
    14e2:	fc 01       	movw	r30, r24
    14e4:	eb 01       	movw	r28, r22
    14e6:	89 01       	movw	r16, r18
    14e8:	61 15       	cp	r22, r1
    14ea:	71 05       	cpc	r23, r1
    14ec:	41 f0       	breq	.+16     	;  0x14fe
    14ee:	80 89       	ldd	r24, Z+16	; 0x10
    14f0:	91 89       	ldd	r25, Z+17	; 0x11
    14f2:	a2 89       	ldd	r26, Z+18	; 0x12
    14f4:	b3 89       	ldd	r27, Z+19	; 0x13
    14f6:	88 83       	st	Y, r24
    14f8:	99 83       	std	Y+1, r25	; 0x01
    14fa:	aa 83       	std	Y+2, r26	; 0x02
    14fc:	bb 83       	std	Y+3, r27	; 0x03
    14fe:	41 15       	cp	r20, r1
    1500:	51 05       	cpc	r21, r1
    1502:	49 f0       	breq	.+18     	;  0x1516
    1504:	80 8d       	ldd	r24, Z+24	; 0x18
    1506:	91 8d       	ldd	r25, Z+25	; 0x19
    1508:	a2 8d       	ldd	r26, Z+26	; 0x1a
    150a:	b3 8d       	ldd	r27, Z+27	; 0x1b
    150c:	ea 01       	movw	r28, r20
    150e:	88 83       	st	Y, r24
    1510:	99 83       	std	Y+1, r25	; 0x01
    1512:	aa 83       	std	Y+2, r26	; 0x02
    1514:	bb 83       	std	Y+3, r27	; 0x03
    1516:	01 15       	cp	r16, r1
    1518:	11 05       	cpc	r17, r1
    151a:	11 f1       	breq	.+68     	;  0x1560
    151c:	ef 01       	movw	r28, r30
    151e:	c4 5b       	subi	r28, 0xB4	; 180
    1520:	df 4f       	sbci	r29, 0xFF	; 255
    1522:	88 81       	ld	r24, Y
    1524:	99 81       	ldd	r25, Y+1	; 0x01
    1526:	aa 81       	ldd	r26, Y+2	; 0x02
    1528:	bb 81       	ldd	r27, Y+3	; 0x03
    152a:	8f 5f       	subi	r24, 0xFF	; 255
    152c:	9f 4f       	sbci	r25, 0xFF	; 255
    152e:	af 4f       	sbci	r26, 0xFF	; 255
    1530:	bf 4f       	sbci	r27, 0xFF	; 255
    1532:	29 f4       	brne	.+10     	;  0x153e
    1534:	2f ef       	ldi	r18, 0xFF	; 255
    1536:	3f ef       	ldi	r19, 0xFF	; 255
    1538:	4f ef       	ldi	r20, 0xFF	; 255
    153a:	5f ef       	ldi	r21, 0xFF	; 255
    153c:	0c c0       	rjmp	.+24     	;  0x1556
    153e:	0e 94 e1 13 	call	0x27c2	;  0x27c2
    1542:	9b 01       	movw	r18, r22
    1544:	ac 01       	movw	r20, r24
    1546:	88 81       	ld	r24, Y
    1548:	99 81       	ldd	r25, Y+1	; 0x01
    154a:	aa 81       	ldd	r26, Y+2	; 0x02
    154c:	bb 81       	ldd	r27, Y+3	; 0x03
    154e:	28 1b       	sub	r18, r24
    1550:	39 0b       	sbc	r19, r25
    1552:	4a 0b       	sbc	r20, r26
    1554:	5b 0b       	sbc	r21, r27
    1556:	e8 01       	movw	r28, r16
    1558:	28 83       	st	Y, r18
    155a:	39 83       	std	Y+1, r19	; 0x01
    155c:	4a 83       	std	Y+2, r20	; 0x02
    155e:	5b 83       	std	Y+3, r21	; 0x03
    1560:	df 91       	pop	r29
    1562:	cf 91       	pop	r28
    1564:	1f 91       	pop	r17
    1566:	0f 91       	pop	r16
    1568:	08 95       	ret
    156a:	af 92       	push	r10
    156c:	bf 92       	push	r11
    156e:	cf 92       	push	r12
    1570:	df 92       	push	r13
    1572:	ef 92       	push	r14
    1574:	ff 92       	push	r15
    1576:	0f 93       	push	r16
    1578:	1f 93       	push	r17
    157a:	df 93       	push	r29
    157c:	cf 93       	push	r28
    157e:	cd b7       	in	r28, 0x3d	; 61
    1580:	de b7       	in	r29, 0x3e	; 62
    1582:	28 97       	sbiw	r28, 0x08	; 8
    1584:	0f b6       	in	r0, 0x3f	; 63
    1586:	f8 94       	cli
    1588:	de bf       	out	0x3e, r29	; 62
    158a:	0f be       	out	0x3f, r0	; 63
    158c:	cd bf       	out	0x3d, r28	; 61
    158e:	6b 01       	movw	r12, r22
    1590:	5a 01       	movw	r10, r20
    1592:	be 01       	movw	r22, r28
    1594:	6f 5f       	subi	r22, 0xFF	; 255
    1596:	7f 4f       	sbci	r23, 0xFF	; 255
    1598:	ae 01       	movw	r20, r28
    159a:	4b 5f       	subi	r20, 0xFB	; 251
    159c:	5f 4f       	sbci	r21, 0xFF	; 255
    159e:	0e 94 6d 0a 	call	0x14da	;  0x14da
    15a2:	e9 80       	ldd	r14, Y+1	; 0x01
    15a4:	fa 80       	ldd	r15, Y+2	; 0x02
    15a6:	0b 81       	ldd	r16, Y+3	; 0x03
    15a8:	1c 81       	ldd	r17, Y+4	; 0x04
    15aa:	8f ef       	ldi	r24, 0xFF	; 255
    15ac:	e8 16       	cp	r14, r24
    15ae:	89 ec       	ldi	r24, 0xC9	; 201
    15b0:	f8 06       	cpc	r15, r24
    15b2:	8a e9       	ldi	r24, 0x9A	; 154
    15b4:	08 07       	cpc	r16, r24
    15b6:	8b e3       	ldi	r24, 0x3B	; 59
    15b8:	18 07       	cpc	r17, r24
    15ba:	29 f4       	brne	.+10     	;  0x15c6
    15bc:	e0 e0       	ldi	r30, 0x00	; 0
    15be:	70 e0       	ldi	r23, 0x00	; 0
    15c0:	8a e7       	ldi	r24, 0x7A	; 122
    15c2:	64 e4       	ldi	r22, 0x44	; 68
    15c4:	0c c0       	rjmp	.+24     	;  0x15de
    15c6:	c8 01       	movw	r24, r16
    15c8:	b7 01       	movw	r22, r14
    15ca:	0e 94 23 15 	call	0x2a46	;  0x2a46
    15ce:	20 e0       	ldi	r18, 0x00	; 0
    15d0:	34 e2       	ldi	r19, 0x24	; 36
    15d2:	44 e7       	ldi	r20, 0x74	; 116
    15d4:	59 e4       	ldi	r21, 0x49	; 73
    15d6:	0e 94 b9 14 	call	0x2972	;  0x2972
    15da:	e6 2f       	mov	r30, r22
    15dc:	69 2f       	mov	r22, r25
    15de:	2e 2f       	mov	r18, r30
    15e0:	37 2f       	mov	r19, r23
    15e2:	48 2f       	mov	r20, r24
    15e4:	56 2f       	mov	r21, r22
    15e6:	c9 01       	movw	r24, r18
    15e8:	da 01       	movw	r26, r20
    15ea:	f6 01       	movw	r30, r12
    15ec:	80 83       	st	Z, r24
    15ee:	91 83       	std	Z+1, r25	; 0x01
    15f0:	a2 83       	std	Z+2, r26	; 0x02
    15f2:	b3 83       	std	Z+3, r27	; 0x03
    15f4:	ff ef       	ldi	r31, 0xFF	; 255
    15f6:	ef 16       	cp	r14, r31
    15f8:	f9 ec       	ldi	r31, 0xC9	; 201
    15fa:	ff 06       	cpc	r15, r31
    15fc:	fa e9       	ldi	r31, 0x9A	; 154
    15fe:	0f 07       	cpc	r16, r31
    1600:	fb e3       	ldi	r31, 0x3B	; 59
    1602:	1f 07       	cpc	r17, r31
    1604:	29 f4       	brne	.+10     	;  0x1610
    1606:	e0 e0       	ldi	r30, 0x00	; 0
    1608:	70 e0       	ldi	r23, 0x00	; 0
    160a:	8a e7       	ldi	r24, 0x7A	; 122
    160c:	64 e4       	ldi	r22, 0x44	; 68
    160e:	0e c0       	rjmp	.+28     	;  0x162c
    1610:	6d 81       	ldd	r22, Y+5	; 0x05
    1612:	7e 81       	ldd	r23, Y+6	; 0x06
    1614:	8f 81       	ldd	r24, Y+7	; 0x07
    1616:	98 85       	ldd	r25, Y+8	; 0x08
    1618:	0e 94 23 15 	call	0x2a46	;  0x2a46
    161c:	20 e0       	ldi	r18, 0x00	; 0
    161e:	34 e2       	ldi	r19, 0x24	; 36
    1620:	44 e7       	ldi	r20, 0x74	; 116
    1622:	59 e4       	ldi	r21, 0x49	; 73
    1624:	0e 94 b9 14 	call	0x2972	;  0x2972
    1628:	e6 2f       	mov	r30, r22
    162a:	69 2f       	mov	r22, r25
    162c:	2e 2f       	mov	r18, r30
    162e:	37 2f       	mov	r19, r23
    1630:	48 2f       	mov	r20, r24
    1632:	56 2f       	mov	r21, r22
    1634:	c9 01       	movw	r24, r18
    1636:	da 01       	movw	r26, r20
    1638:	f5 01       	movw	r30, r10
    163a:	80 83       	st	Z, r24
    163c:	91 83       	std	Z+1, r25	; 0x01
    163e:	a2 83       	std	Z+2, r26	; 0x02
    1640:	b3 83       	std	Z+3, r27	; 0x03
    1642:	28 96       	adiw	r28, 0x08	; 8
    1644:	0f b6       	in	r0, 0x3f	; 63
    1646:	f8 94       	cli
    1648:	de bf       	out	0x3e, r29	; 62
    164a:	0f be       	out	0x3f, r0	; 63
    164c:	cd bf       	out	0x3d, r28	; 61
    164e:	cf 91       	pop	r28
    1650:	df 91       	pop	r29
    1652:	1f 91       	pop	r17
    1654:	0f 91       	pop	r16
    1656:	ff 90       	pop	r15
    1658:	ef 90       	pop	r14
    165a:	df 90       	pop	r13
    165c:	cf 90       	pop	r12
    165e:	bf 90       	pop	r11
    1660:	af 90       	pop	r10
    1662:	08 95       	ret
    1664:	ff 92       	push	r15
    1666:	0f 93       	push	r16
    1668:	1f 93       	push	r17
    166a:	cf 93       	push	r28
    166c:	df 93       	push	r29
    166e:	ec 01       	movw	r28, r24
    1670:	cb 5a       	subi	r28, 0xAB	; 171
    1672:	df 4f       	sbci	r29, 0xFF	; 255
    1674:	88 81       	ld	r24, Y
    1676:	c5 55       	subi	r28, 0x55	; 85
    1678:	d0 40       	sbci	r29, 0x00	; 0
    167a:	88 23       	and	r24, r24
    167c:	09 f4       	brne	.+2      	;  0x1680
    167e:	bf c0       	rjmp	.+382    	;  0x17fe
    1680:	fe 01       	movw	r30, r28
    1682:	ea 5a       	subi	r30, 0xAA	; 170
    1684:	ff 4f       	sbci	r31, 0xFF	; 255
    1686:	ce 01       	movw	r24, r28
    1688:	60 81       	ld	r22, Z
    168a:	0e 94 a3 08 	call	0x1146	;  0x1146
    168e:	8c 01       	movw	r16, r24
    1690:	ce 01       	movw	r24, r28
    1692:	c9 5a       	subi	r28, 0xA9	; 169
    1694:	df 4f       	sbci	r29, 0xFF	; 255
    1696:	68 81       	ld	r22, Y
    1698:	0e 94 a3 08 	call	0x1146	;  0x1146
    169c:	54 e0       	ldi	r21, 0x04	; 4
    169e:	00 0f       	add	r16, r16
    16a0:	11 1f       	adc	r17, r17
    16a2:	5a 95       	dec	r21
    16a4:	e1 f7       	brne	.-8      	;  0x169e
    16a6:	80 0f       	add	r24, r16
    16a8:	23 97       	sbiw	r28, 0x03	; 3
    16aa:	98 81       	ld	r25, Y
    16ac:	c4 55       	subi	r28, 0x54	; 84
    16ae:	d0 40       	sbci	r29, 0x00	; 0
    16b0:	89 17       	cp	r24, r25
    16b2:	09 f0       	breq	.+2      	;  0x16b6
    16b4:	9b c0       	rjmp	.+310    	;  0x17ec
    16b6:	c8 59       	subi	r28, 0x98	; 152
    16b8:	df 4f       	sbci	r29, 0xFF	; 255
    16ba:	88 81       	ld	r24, Y
    16bc:	c8 56       	subi	r28, 0x68	; 104
    16be:	d0 40       	sbci	r29, 0x00	; 0
    16c0:	88 23       	and	r24, r24
    16c2:	09 f4       	brne	.+2      	;  0x16c6
    16c4:	9e c1       	rjmp	.+828    	;  0x1a02
    16c6:	fe 01       	movw	r30, r28
    16c8:	e3 59       	subi	r30, 0x93	; 147
    16ca:	ff 4f       	sbci	r31, 0xFF	; 255
    16cc:	80 81       	ld	r24, Z
    16ce:	91 81       	ldd	r25, Z+1	; 0x01
    16d0:	01 96       	adiw	r24, 0x01	; 1
    16d2:	91 83       	std	Z+1, r25	; 0x01
    16d4:	80 83       	st	Z, r24
    16d6:	fe 01       	movw	r30, r28
    16d8:	ec 5b       	subi	r30, 0xBC	; 188
    16da:	ff 4f       	sbci	r31, 0xFF	; 255
    16dc:	c8 5b       	subi	r28, 0xB8	; 184
    16de:	df 4f       	sbci	r29, 0xFF	; 255
    16e0:	88 81       	ld	r24, Y
    16e2:	99 81       	ldd	r25, Y+1	; 0x01
    16e4:	aa 81       	ldd	r26, Y+2	; 0x02
    16e6:	bb 81       	ldd	r27, Y+3	; 0x03
    16e8:	c8 54       	subi	r28, 0x48	; 72
    16ea:	d0 40       	sbci	r29, 0x00	; 0
    16ec:	80 83       	st	Z, r24
    16ee:	91 83       	std	Z+1, r25	; 0x01
    16f0:	a2 83       	std	Z+2, r26	; 0x02
    16f2:	b3 83       	std	Z+3, r27	; 0x03
    16f4:	fe 01       	movw	r30, r28
    16f6:	e4 5b       	subi	r30, 0xB4	; 180
    16f8:	ff 4f       	sbci	r31, 0xFF	; 255
    16fa:	c0 5b       	subi	r28, 0xB0	; 176
    16fc:	df 4f       	sbci	r29, 0xFF	; 255
    16fe:	88 81       	ld	r24, Y
    1700:	99 81       	ldd	r25, Y+1	; 0x01
    1702:	aa 81       	ldd	r26, Y+2	; 0x02
    1704:	bb 81       	ldd	r27, Y+3	; 0x03
    1706:	80 83       	st	Z, r24
    1708:	91 83       	std	Z+1, r25	; 0x01
    170a:	a2 83       	std	Z+2, r26	; 0x02
    170c:	b3 83       	std	Z+3, r27	; 0x03
    170e:	65 96       	adiw	r28, 0x15	; 21
    1710:	88 81       	ld	r24, Y
    1712:	c5 56       	subi	r28, 0x65	; 101
    1714:	d0 40       	sbci	r29, 0x00	; 0
    1716:	88 23       	and	r24, r24
    1718:	a1 f1       	breq	.+104    	;  0x1782
    171a:	81 30       	cpi	r24, 0x01	; 1
    171c:	09 f0       	breq	.+2      	;  0x1720
    171e:	64 c0       	rjmp	.+200    	;  0x17e8
    1720:	8c 81       	ldd	r24, Y+4	; 0x04
    1722:	9d 81       	ldd	r25, Y+5	; 0x05
    1724:	ae 81       	ldd	r26, Y+6	; 0x06
    1726:	bf 81       	ldd	r27, Y+7	; 0x07
    1728:	88 83       	st	Y, r24
    172a:	99 83       	std	Y+1, r25	; 0x01
    172c:	aa 83       	std	Y+2, r26	; 0x02
    172e:	bb 83       	std	Y+3, r27	; 0x03
    1730:	8c 85       	ldd	r24, Y+12	; 0x0c
    1732:	9d 85       	ldd	r25, Y+13	; 0x0d
    1734:	ae 85       	ldd	r26, Y+14	; 0x0e
    1736:	bf 85       	ldd	r27, Y+15	; 0x0f
    1738:	88 87       	std	Y+8, r24	; 0x08
    173a:	99 87       	std	Y+9, r25	; 0x09
    173c:	aa 87       	std	Y+10, r26	; 0x0a
    173e:	bb 87       	std	Y+11, r27	; 0x0b
    1740:	8c 89       	ldd	r24, Y+20	; 0x14
    1742:	9d 89       	ldd	r25, Y+21	; 0x15
    1744:	ae 89       	ldd	r26, Y+22	; 0x16
    1746:	bf 89       	ldd	r27, Y+23	; 0x17
    1748:	88 8b       	std	Y+16, r24	; 0x10
    174a:	99 8b       	std	Y+17, r25	; 0x11
    174c:	aa 8b       	std	Y+18, r26	; 0x12
    174e:	bb 8b       	std	Y+19, r27	; 0x13
    1750:	8c 8d       	ldd	r24, Y+28	; 0x1c
    1752:	9d 8d       	ldd	r25, Y+29	; 0x1d
    1754:	ae 8d       	ldd	r26, Y+30	; 0x1e
    1756:	bf 8d       	ldd	r27, Y+31	; 0x1f
    1758:	88 8f       	std	Y+24, r24	; 0x18
    175a:	99 8f       	std	Y+25, r25	; 0x19
    175c:	aa 8f       	std	Y+26, r26	; 0x1a
    175e:	bb 8f       	std	Y+27, r27	; 0x1b
    1760:	8c a5       	ldd	r24, Y+44	; 0x2c
    1762:	9d a5       	ldd	r25, Y+45	; 0x2d
    1764:	ae a5       	ldd	r26, Y+46	; 0x2e
    1766:	bf a5       	ldd	r27, Y+47	; 0x2f
    1768:	88 a7       	std	Y+40, r24	; 0x28
    176a:	99 a7       	std	Y+41, r25	; 0x29
    176c:	aa a7       	std	Y+42, r26	; 0x2a
    176e:	bb a7       	std	Y+43, r27	; 0x2b
    1770:	8c a9       	ldd	r24, Y+52	; 0x34
    1772:	9d a9       	ldd	r25, Y+53	; 0x35
    1774:	ae a9       	ldd	r26, Y+54	; 0x36
    1776:	bf a9       	ldd	r27, Y+55	; 0x37
    1778:	88 ab       	std	Y+48, r24	; 0x30
    177a:	99 ab       	std	Y+49, r25	; 0x31
    177c:	aa ab       	std	Y+50, r26	; 0x32
    177e:	bb ab       	std	Y+51, r27	; 0x33
    1780:	33 c0       	rjmp	.+102    	;  0x17e8
    1782:	8c a1       	ldd	r24, Y+36	; 0x24
    1784:	9d a1       	ldd	r25, Y+37	; 0x25
    1786:	ae a1       	ldd	r26, Y+38	; 0x26
    1788:	bf a1       	ldd	r27, Y+39	; 0x27
    178a:	88 a3       	std	Y+32, r24	; 0x20
    178c:	99 a3       	std	Y+33, r25	; 0x21
    178e:	aa a3       	std	Y+34, r26	; 0x22
    1790:	bb a3       	std	Y+35, r27	; 0x23
    1792:	8c 81       	ldd	r24, Y+4	; 0x04
    1794:	9d 81       	ldd	r25, Y+5	; 0x05
    1796:	ae 81       	ldd	r26, Y+6	; 0x06
    1798:	bf 81       	ldd	r27, Y+7	; 0x07
    179a:	88 83       	st	Y, r24
    179c:	99 83       	std	Y+1, r25	; 0x01
    179e:	aa 83       	std	Y+2, r26	; 0x02
    17a0:	bb 83       	std	Y+3, r27	; 0x03
    17a2:	8c 89       	ldd	r24, Y+20	; 0x14
    17a4:	9d 89       	ldd	r25, Y+21	; 0x15
    17a6:	ae 89       	ldd	r26, Y+22	; 0x16
    17a8:	bf 89       	ldd	r27, Y+23	; 0x17
    17aa:	88 8b       	std	Y+16, r24	; 0x10
    17ac:	99 8b       	std	Y+17, r25	; 0x11
    17ae:	aa 8b       	std	Y+18, r26	; 0x12
    17b0:	bb 8b       	std	Y+19, r27	; 0x13
    17b2:	8c 8d       	ldd	r24, Y+28	; 0x1c
    17b4:	9d 8d       	ldd	r25, Y+29	; 0x1d
    17b6:	ae 8d       	ldd	r26, Y+30	; 0x1e
    17b8:	bf 8d       	ldd	r27, Y+31	; 0x1f
    17ba:	88 8f       	std	Y+24, r24	; 0x18
    17bc:	99 8f       	std	Y+25, r25	; 0x19
    17be:	aa 8f       	std	Y+26, r26	; 0x1a
    17c0:	bb 8f       	std	Y+27, r27	; 0x1b
    17c2:	fe 01       	movw	r30, r28
    17c4:	e0 5c       	subi	r30, 0xC0	; 192
    17c6:	ff 4f       	sbci	r31, 0xFF	; 255
    17c8:	ce 5b       	subi	r28, 0xBE	; 190
    17ca:	df 4f       	sbci	r29, 0xFF	; 255
    17cc:	88 81       	ld	r24, Y
    17ce:	99 81       	ldd	r25, Y+1	; 0x01
    17d0:	c2 54       	subi	r28, 0x42	; 66
    17d2:	d0 40       	sbci	r29, 0x00	; 0
    17d4:	91 83       	std	Z+1, r25	; 0x01
    17d6:	80 83       	st	Z, r24
    17d8:	8c ad       	ldd	r24, Y+60	; 0x3c
    17da:	9d ad       	ldd	r25, Y+61	; 0x3d
    17dc:	ae ad       	ldd	r26, Y+62	; 0x3e
    17de:	bf ad       	ldd	r27, Y+63	; 0x3f
    17e0:	88 af       	std	Y+56, r24	; 0x38
    17e2:	99 af       	std	Y+57, r25	; 0x39
    17e4:	aa af       	std	Y+58, r26	; 0x3a
    17e6:	bb af       	std	Y+59, r27	; 0x3b
    17e8:	81 e0       	ldi	r24, 0x01	; 1
    17ea:	0c c1       	rjmp	.+536    	;  0x1a04
    17ec:	fe 01       	movw	r30, r28
    17ee:	e1 59       	subi	r30, 0x91	; 145
    17f0:	ff 4f       	sbci	r31, 0xFF	; 255
    17f2:	80 81       	ld	r24, Z
    17f4:	91 81       	ldd	r25, Z+1	; 0x01
    17f6:	01 96       	adiw	r24, 0x01	; 1
    17f8:	91 83       	std	Z+1, r25	; 0x01
    17fa:	80 83       	st	Z, r24
    17fc:	02 c1       	rjmp	.+516    	;  0x1a02
    17fe:	ca 59       	subi	r28, 0x9A	; 154
    1800:	df 4f       	sbci	r29, 0xFF	; 255
    1802:	88 81       	ld	r24, Y
    1804:	c6 56       	subi	r28, 0x66	; 102
    1806:	d0 40       	sbci	r29, 0x00	; 0
    1808:	88 23       	and	r24, r24
    180a:	21 f5       	brne	.+72     	;  0x1854
    180c:	9e 01       	movw	r18, r28
    180e:	2a 5a       	subi	r18, 0xAA	; 170
    1810:	3f 4f       	sbci	r19, 0xFF	; 255
    1812:	d9 01       	movw	r26, r18
    1814:	e7 e3       	ldi	r30, 0x37	; 55
    1816:	f1 e0       	ldi	r31, 0x01	; 1
    1818:	02 c0       	rjmp	.+4      	;  0x181e
    181a:	11 96       	adiw	r26, 0x01	; 1
    181c:	31 96       	adiw	r30, 0x01	; 1
    181e:	9c 91       	ld	r25, X
    1820:	99 23       	and	r25, r25
    1822:	39 f0       	breq	.+14     	;  0x1832
    1824:	80 81       	ld	r24, Z
    1826:	98 17       	cp	r25, r24
    1828:	c1 f3       	breq	.-16     	;  0x181a
    182a:	d9 01       	movw	r26, r18
    182c:	ed e3       	ldi	r30, 0x3D	; 61
    182e:	f1 e0       	ldi	r31, 0x01	; 1
    1830:	06 c0       	rjmp	.+12     	;  0x183e
    1832:	cb 59       	subi	r28, 0x9B	; 155
    1834:	df 4f       	sbci	r29, 0xFF	; 255
    1836:	81 e0       	ldi	r24, 0x01	; 1
    1838:	ee c0       	rjmp	.+476    	;  0x1a16
    183a:	11 96       	adiw	r26, 0x01	; 1
    183c:	31 96       	adiw	r30, 0x01	; 1
    183e:	9c 91       	ld	r25, X
    1840:	99 23       	and	r25, r25
    1842:	21 f0       	breq	.+8      	;  0x184c
    1844:	80 81       	ld	r24, Z
    1846:	98 17       	cp	r25, r24
    1848:	c1 f3       	breq	.-16     	;  0x183a
    184a:	e2 c0       	rjmp	.+452    	;  0x1a10
    184c:	cb 59       	subi	r28, 0x9B	; 155
    184e:	df 4f       	sbci	r29, 0xFF	; 255
    1850:	18 82       	st	Y, r1
    1852:	d7 c0       	rjmp	.+430    	;  0x1a02
    1854:	cb 59       	subi	r28, 0x9B	; 155
    1856:	df 4f       	sbci	r29, 0xFF	; 255
    1858:	38 81       	ld	r19, Y
    185a:	c5 56       	subi	r28, 0x65	; 101
    185c:	d0 40       	sbci	r29, 0x00	; 0
    185e:	32 30       	cpi	r19, 0x02	; 2
    1860:	09 f4       	brne	.+2      	;  0x1864
    1862:	cf c0       	rjmp	.+414    	;  0x1a02
    1864:	ca 5a       	subi	r28, 0xAA	; 170
    1866:	df 4f       	sbci	r29, 0xFF	; 255
    1868:	28 81       	ld	r18, Y
    186a:	c6 55       	subi	r28, 0x56	; 86
    186c:	d0 40       	sbci	r29, 0x00	; 0
    186e:	22 23       	and	r18, r18
    1870:	09 f4       	brne	.+2      	;  0x1874
    1872:	c7 c0       	rjmp	.+398    	;  0x1a02
    1874:	e3 2f       	mov	r30, r19
    1876:	f0 e0       	ldi	r31, 0x00	; 0
    1878:	45 e0       	ldi	r20, 0x05	; 5
    187a:	ee 0f       	add	r30, r30
    187c:	ff 1f       	adc	r31, r31
    187e:	4a 95       	dec	r20
    1880:	e1 f7       	brne	.-8      	;  0x187a
    1882:	90 e0       	ldi	r25, 0x00	; 0
    1884:	e8 2b       	or	r30, r24
    1886:	f9 2b       	or	r31, r25
    1888:	31 97       	sbiw	r30, 0x01	; 1
    188a:	e9 32       	cpi	r30, 0x29	; 41
    188c:	f1 05       	cpc	r31, r1
    188e:	08 f0       	brcs	.+2      	;  0x1892
    1890:	b8 c0       	rjmp	.+368    	;  0x1a02
    1892:	ec 5c       	subi	r30, 0xCC	; 204
    1894:	ff 4f       	sbci	r31, 0xFF	; 255
    1896:	ee 0f       	add	r30, r30
    1898:	ff 1f       	adc	r31, r31
    189a:	05 90       	lpm	r0, Z+
    189c:	f4 91       	lpm	r31, Z+
    189e:	e0 2d       	mov	r30, r0
    18a0:	09 94       	ijmp
    18a2:	ce 01       	movw	r24, r28
    18a4:	0e 94 bb 08 	call	0x1176	;  0x1176
    18a8:	6c 83       	std	Y+4, r22	; 0x04
    18aa:	7d 83       	std	Y+5, r23	; 0x05
    18ac:	8e 83       	std	Y+6, r24	; 0x06
    18ae:	9f 83       	std	Y+7, r25	; 0x07
    18b0:	0e 94 e1 13 	call	0x27c2	;  0x27c2
    18b4:	c8 5b       	subi	r28, 0xB8	; 184
    18b6:	df 4f       	sbci	r29, 0xFF	; 255
    18b8:	13 c0       	rjmp	.+38     	;  0x18e0
    18ba:	fe 01       	movw	r30, r28
    18bc:	e8 59       	subi	r30, 0x98	; 152
    18be:	ff 4f       	sbci	r31, 0xFF	; 255
    18c0:	10 82       	st	Z, r1
    18c2:	21 34       	cpi	r18, 0x41	; 65
    18c4:	09 f0       	breq	.+2      	;  0x18c8
    18c6:	9d c0       	rjmp	.+314    	;  0x1a02
    18c8:	7f c0       	rjmp	.+254    	;  0x19c8
    18ca:	ce 01       	movw	r24, r28
    18cc:	0e 94 3e 09 	call	0x127c	;  0x127c
    18d0:	6c 8b       	std	Y+20, r22	; 0x14
    18d2:	7d 8b       	std	Y+21, r23	; 0x15
    18d4:	8e 8b       	std	Y+22, r24	; 0x16
    18d6:	9f 8b       	std	Y+23, r25	; 0x17
    18d8:	0e 94 e1 13 	call	0x27c2	;  0x27c2
    18dc:	c0 5b       	subi	r28, 0xB0	; 176
    18de:	df 4f       	sbci	r29, 0xFF	; 255
    18e0:	68 83       	st	Y, r22
    18e2:	79 83       	std	Y+1, r23	; 0x01
    18e4:	8a 83       	std	Y+2, r24	; 0x02
    18e6:	9b 83       	std	Y+3, r25	; 0x03
    18e8:	8c c0       	rjmp	.+280    	;  0x1a02
    18ea:	23 35       	cpi	r18, 0x53	; 83
    18ec:	09 f0       	breq	.+2      	;  0x18f0
    18ee:	89 c0       	rjmp	.+274    	;  0x1a02
    18f0:	8c 89       	ldd	r24, Y+20	; 0x14
    18f2:	9d 89       	ldd	r25, Y+21	; 0x15
    18f4:	ae 89       	ldd	r26, Y+22	; 0x16
    18f6:	bf 89       	ldd	r27, Y+23	; 0x17
    18f8:	b0 95       	com	r27
    18fa:	a0 95       	com	r26
    18fc:	90 95       	com	r25
    18fe:	81 95       	neg	r24
    1900:	9f 4f       	sbci	r25, 0xFF	; 255
    1902:	af 4f       	sbci	r26, 0xFF	; 255
    1904:	bf 4f       	sbci	r27, 0xFF	; 255
    1906:	8c 8b       	std	Y+20, r24	; 0x14
    1908:	9d 8b       	std	Y+21, r25	; 0x15
    190a:	ae 8b       	std	Y+22, r26	; 0x16
    190c:	bf 8b       	std	Y+23, r27	; 0x17
    190e:	79 c0       	rjmp	.+242    	;  0x1a02
    1910:	ce 01       	movw	r24, r28
    1912:	0e 94 3e 09 	call	0x127c	;  0x127c
    1916:	6c 8f       	std	Y+28, r22	; 0x1c
    1918:	7d 8f       	std	Y+29, r23	; 0x1d
    191a:	8e 8f       	std	Y+30, r24	; 0x1e
    191c:	9f 8f       	std	Y+31, r25	; 0x1f
    191e:	71 c0       	rjmp	.+226    	;  0x1a02
    1920:	27 35       	cpi	r18, 0x57	; 87
    1922:	09 f0       	breq	.+2      	;  0x1926
    1924:	6e c0       	rjmp	.+220    	;  0x1a02
    1926:	8c 8d       	ldd	r24, Y+28	; 0x1c
    1928:	9d 8d       	ldd	r25, Y+29	; 0x1d
    192a:	ae 8d       	ldd	r26, Y+30	; 0x1e
    192c:	bf 8d       	ldd	r27, Y+31	; 0x1f
    192e:	b0 95       	com	r27
    1930:	a0 95       	com	r26
    1932:	90 95       	com	r25
    1934:	81 95       	neg	r24
    1936:	9f 4f       	sbci	r25, 0xFF	; 255
    1938:	af 4f       	sbci	r26, 0xFF	; 255
    193a:	bf 4f       	sbci	r27, 0xFF	; 255
    193c:	8c 8f       	std	Y+28, r24	; 0x1c
    193e:	9d 8f       	std	Y+29, r25	; 0x1d
    1940:	ae 8f       	std	Y+30, r26	; 0x1e
    1942:	bf 8f       	std	Y+31, r27	; 0x1f
    1944:	5e c0       	rjmp	.+188    	;  0x1a02
    1946:	ce 01       	movw	r24, r28
    1948:	0e 94 bb 08 	call	0x1176	;  0x1176
    194c:	6c a7       	std	Y+44, r22	; 0x2c
    194e:	7d a7       	std	Y+45, r23	; 0x2d
    1950:	8e a7       	std	Y+46, r24	; 0x2e
    1952:	9f a7       	std	Y+47, r25	; 0x2f
    1954:	56 c0       	rjmp	.+172    	;  0x1a02
    1956:	ce 01       	movw	r24, r28
    1958:	0e 94 bb 08 	call	0x1176	;  0x1176
    195c:	6c ab       	std	Y+52, r22	; 0x34
    195e:	7d ab       	std	Y+53, r23	; 0x35
    1960:	8e ab       	std	Y+54, r24	; 0x36
    1962:	9f ab       	std	Y+55, r25	; 0x37
    1964:	4e c0       	rjmp	.+156    	;  0x1a02
    1966:	8e 01       	movw	r16, r28
    1968:	0a 5a       	subi	r16, 0xAA	; 170
    196a:	1f 4f       	sbci	r17, 0xFF	; 255
    196c:	20 e0       	ldi	r18, 0x00	; 0
    196e:	30 e0       	ldi	r19, 0x00	; 0
    1970:	40 e0       	ldi	r20, 0x00	; 0
    1972:	50 e0       	ldi	r21, 0x00	; 0
    1974:	18 c0       	rjmp	.+48     	;  0x19a6
    1976:	ca 01       	movw	r24, r20
    1978:	b9 01       	movw	r22, r18
    197a:	2a e0       	ldi	r18, 0x0A	; 10
    197c:	30 e0       	ldi	r19, 0x00	; 0
    197e:	40 e0       	ldi	r20, 0x00	; 0
    1980:	50 e0       	ldi	r21, 0x00	; 0
    1982:	0e 94 36 16 	call	0x2c6c	;  0x2c6c
    1986:	2f 2d       	mov	r18, r15
    1988:	33 27       	eor	r19, r19
    198a:	27 fd       	sbrc	r18, 7
    198c:	30 95       	com	r19
    198e:	43 2f       	mov	r20, r19
    1990:	53 2f       	mov	r21, r19
    1992:	20 53       	subi	r18, 0x30	; 48
    1994:	30 40       	sbci	r19, 0x00	; 0
    1996:	40 40       	sbci	r20, 0x00	; 0
    1998:	50 40       	sbci	r21, 0x00	; 0
    199a:	26 0f       	add	r18, r22
    199c:	37 1f       	adc	r19, r23
    199e:	48 1f       	adc	r20, r24
    19a0:	59 1f       	adc	r21, r25
    19a2:	0f 5f       	subi	r16, 0xFF	; 255
    19a4:	1f 4f       	sbci	r17, 0xFF	; 255
    19a6:	f8 01       	movw	r30, r16
    19a8:	f0 80       	ld	r15, Z
    19aa:	8f 2d       	mov	r24, r15
    19ac:	80 53       	subi	r24, 0x30	; 48
    19ae:	8a 30       	cpi	r24, 0x0A	; 10
    19b0:	10 f3       	brcs	.-60     	;  0x1976
    19b2:	2c 87       	std	Y+12, r18	; 0x0c
    19b4:	3d 87       	std	Y+13, r19	; 0x0d
    19b6:	4e 87       	std	Y+14, r20	; 0x0e
    19b8:	5f 87       	std	Y+15, r21	; 0x0f
    19ba:	23 c0       	rjmp	.+70     	;  0x1a02
    19bc:	fe 01       	movw	r30, r28
    19be:	e8 59       	subi	r30, 0x98	; 152
    19c0:	ff 4f       	sbci	r31, 0xFF	; 255
    19c2:	10 82       	st	Z, r1
    19c4:	21 33       	cpi	r18, 0x31	; 49
    19c6:	ec f0       	brlt	.+58     	;  0x1a02
    19c8:	81 e0       	ldi	r24, 0x01	; 1
    19ca:	80 83       	st	Z, r24
    19cc:	1a c0       	rjmp	.+52     	;  0x1a02
    19ce:	ce 01       	movw	r24, r28
    19d0:	8a 5a       	subi	r24, 0xAA	; 170
    19d2:	9f 4f       	sbci	r25, 0xFF	; 255
    19d4:	0e 94 b5 04 	call	0x96a	;  0x96a
    19d8:	fe 01       	movw	r30, r28
    19da:	ee 5b       	subi	r30, 0xBE	; 190
    19dc:	ff 4f       	sbci	r31, 0xFF	; 255
    19de:	80 83       	st	Z, r24
    19e0:	11 82       	std	Z+1, r1	; 0x01
    19e2:	0f c0       	rjmp	.+30     	;  0x1a02
    19e4:	ce 01       	movw	r24, r28
    19e6:	0e 94 bb 08 	call	0x1176	;  0x1176
    19ea:	6c af       	std	Y+60, r22	; 0x3c
    19ec:	7d af       	std	Y+61, r23	; 0x3d
    19ee:	8e af       	std	Y+62, r24	; 0x3e
    19f0:	9f af       	std	Y+63, r25	; 0x3f
    19f2:	07 c0       	rjmp	.+14     	;  0x1a02
    19f4:	ce 01       	movw	r24, r28
    19f6:	0e 94 bb 08 	call	0x1176	;  0x1176
    19fa:	6c a3       	std	Y+36, r22	; 0x24
    19fc:	7d a3       	std	Y+37, r23	; 0x25
    19fe:	8e a3       	std	Y+38, r24	; 0x26
    1a00:	9f a3       	std	Y+39, r25	; 0x27
    1a02:	80 e0       	ldi	r24, 0x00	; 0
    1a04:	df 91       	pop	r29
    1a06:	cf 91       	pop	r28
    1a08:	1f 91       	pop	r17
    1a0a:	0f 91       	pop	r16
    1a0c:	ff 90       	pop	r15
    1a0e:	08 95       	ret
    1a10:	cb 59       	subi	r28, 0x9B	; 155
    1a12:	df 4f       	sbci	r29, 0xFF	; 255
    1a14:	82 e0       	ldi	r24, 0x02	; 2
    1a16:	88 83       	st	Y, r24
    1a18:	f4 cf       	rjmp	.-24     	;  0x1a02
    1a1a:	1f 93       	push	r17
    1a1c:	cf 93       	push	r28
    1a1e:	df 93       	push	r29
    1a20:	ec 01       	movw	r28, r24
    1a22:	16 2f       	mov	r17, r22
    1a24:	fc 01       	movw	r30, r24
    1a26:	e7 59       	subi	r30, 0x97	; 151
    1a28:	ff 4f       	sbci	r31, 0xFF	; 255
    1a2a:	80 81       	ld	r24, Z
    1a2c:	91 81       	ldd	r25, Z+1	; 0x01
    1a2e:	a2 81       	ldd	r26, Z+2	; 0x02
    1a30:	b3 81       	ldd	r27, Z+3	; 0x03
    1a32:	01 96       	adiw	r24, 0x01	; 1
    1a34:	a1 1d       	adc	r26, r1
    1a36:	b1 1d       	adc	r27, r1
    1a38:	80 83       	st	Z, r24
    1a3a:	91 83       	std	Z+1, r25	; 0x01
    1a3c:	a2 83       	std	Z+2, r26	; 0x02
    1a3e:	b3 83       	std	Z+3, r27	; 0x03
    1a40:	64 32       	cpi	r22, 0x24	; 36
    1a42:	a1 f1       	breq	.+104    	;  0x1aac
    1a44:	de 01       	movw	r26, r28
    1a46:	a9 59       	subi	r26, 0x99	; 153
    1a48:	bf 4f       	sbci	r27, 0xFF	; 255
    1a4a:	65 32       	cpi	r22, 0x25	; 37
    1a4c:	2c f4       	brge	.+10     	;  0x1a58
    1a4e:	6a 30       	cpi	r22, 0x0A	; 10
    1a50:	69 f0       	breq	.+26     	;  0x1a6c
    1a52:	6d 30       	cpi	r22, 0x0D	; 13
    1a54:	c9 f5       	brne	.+114    	;  0x1ac8
    1a56:	0a c0       	rjmp	.+20     	;  0x1a6c
    1a58:	6a 32       	cpi	r22, 0x2A	; 42
    1a5a:	41 f0       	breq	.+16     	;  0x1a6c
    1a5c:	6c 32       	cpi	r22, 0x2C	; 44
    1a5e:	a1 f5       	brne	.+104    	;  0x1ac8
    1a60:	fe 01       	movw	r30, r28
    1a62:	ec 5a       	subi	r30, 0xAC	; 172
    1a64:	ff 4f       	sbci	r31, 0xFF	; 255
    1a66:	80 81       	ld	r24, Z
    1a68:	86 27       	eor	r24, r22
    1a6a:	80 83       	st	Z, r24
    1a6c:	8c 91       	ld	r24, X
    1a6e:	8f 30       	cpi	r24, 0x0F	; 15
    1a70:	10 f0       	brcs	.+4      	;  0x1a76
    1a72:	90 e0       	ldi	r25, 0x00	; 0
    1a74:	0a c0       	rjmp	.+20     	;  0x1a8a
    1a76:	fe 01       	movw	r30, r28
    1a78:	e8 0f       	add	r30, r24
    1a7a:	f1 1d       	adc	r31, r1
    1a7c:	ea 5a       	subi	r30, 0xAA	; 170
    1a7e:	ff 4f       	sbci	r31, 0xFF	; 255
    1a80:	10 82       	st	Z, r1
    1a82:	ce 01       	movw	r24, r28
    1a84:	0e 94 32 0b 	call	0x1664	;  0x1664
    1a88:	98 2f       	mov	r25, r24
    1a8a:	fe 01       	movw	r30, r28
    1a8c:	ea 59       	subi	r30, 0x9A	; 154
    1a8e:	ff 4f       	sbci	r31, 0xFF	; 255
    1a90:	80 81       	ld	r24, Z
    1a92:	8f 5f       	subi	r24, 0xFF	; 255
    1a94:	80 83       	st	Z, r24
    1a96:	c9 59       	subi	r28, 0x99	; 153
    1a98:	df 4f       	sbci	r29, 0xFF	; 255
    1a9a:	18 82       	st	Y, r1
    1a9c:	fe 01       	movw	r30, r28
    1a9e:	72 97       	sbiw	r30, 0x12	; 18
    1aa0:	10 82       	st	Z, r1
    1aa2:	1a 32       	cpi	r17, 0x2A	; 42
    1aa4:	51 f5       	brne	.+84     	;  0x1afa
    1aa6:	81 e0       	ldi	r24, 0x01	; 1
    1aa8:	80 83       	st	Z, r24
    1aaa:	27 c0       	rjmp	.+78     	;  0x1afa
    1aac:	c9 59       	subi	r28, 0x99	; 153
    1aae:	df 4f       	sbci	r29, 0xFF	; 255
    1ab0:	18 82       	st	Y, r1
    1ab2:	1a 92       	st	-Y, r1
    1ab4:	62 97       	sbiw	r28, 0x12	; 18
    1ab6:	18 82       	st	Y, r1
    1ab8:	61 96       	adiw	r28, 0x11	; 17
    1aba:	82 e0       	ldi	r24, 0x02	; 2
    1abc:	88 83       	st	Y, r24
    1abe:	60 97       	sbiw	r28, 0x10	; 16
    1ac0:	18 82       	st	Y, r1
    1ac2:	63 96       	adiw	r28, 0x13	; 19
    1ac4:	18 82       	st	Y, r1
    1ac6:	18 c0       	rjmp	.+48     	;  0x1af8
    1ac8:	8c 91       	ld	r24, X
    1aca:	8e 30       	cpi	r24, 0x0E	; 14
    1acc:	40 f4       	brcc	.+16     	;  0x1ade
    1ace:	fe 01       	movw	r30, r28
    1ad0:	e8 0f       	add	r30, r24
    1ad2:	f1 1d       	adc	r31, r1
    1ad4:	ea 5a       	subi	r30, 0xAA	; 170
    1ad6:	ff 4f       	sbci	r31, 0xFF	; 255
    1ad8:	10 83       	st	Z, r17
    1ada:	8f 5f       	subi	r24, 0xFF	; 255
    1adc:	8c 93       	st	X, r24
    1ade:	cb 5a       	subi	r28, 0xAB	; 171
    1ae0:	df 4f       	sbci	r29, 0xFF	; 255
    1ae2:	88 81       	ld	r24, Y
    1ae4:	c5 55       	subi	r28, 0x55	; 85
    1ae6:	d0 40       	sbci	r29, 0x00	; 0
    1ae8:	88 23       	and	r24, r24
    1aea:	31 f4       	brne	.+12     	;  0x1af8
    1aec:	fe 01       	movw	r30, r28
    1aee:	ec 5a       	subi	r30, 0xAC	; 172
    1af0:	ff 4f       	sbci	r31, 0xFF	; 255
    1af2:	80 81       	ld	r24, Z
    1af4:	81 27       	eor	r24, r17
    1af6:	80 83       	st	Z, r24
    1af8:	90 e0       	ldi	r25, 0x00	; 0
    1afa:	89 2f       	mov	r24, r25
    1afc:	df 91       	pop	r29
    1afe:	cf 91       	pop	r28
    1b00:	1f 91       	pop	r17
    1b02:	08 95       	ret
    1b04:	dc 01       	movw	r26, r24
    1b06:	18 96       	adiw	r26, 0x08	; 8
    1b08:	ed 91       	ld	r30, X+
    1b0a:	fc 91       	ld	r31, X
    1b0c:	19 97       	sbiw	r26, 0x09	; 9
    1b0e:	90 81       	ld	r25, Z
    1b10:	1e 96       	adiw	r26, 0x0e	; 14
    1b12:	8c 91       	ld	r24, X
    1b14:	1e 97       	sbiw	r26, 0x0e	; 14
    1b16:	80 95       	com	r24
    1b18:	89 23       	and	r24, r25
    1b1a:	80 83       	st	Z, r24
    1b1c:	14 96       	adiw	r26, 0x04	; 4
    1b1e:	ed 91       	ld	r30, X+
    1b20:	fc 91       	ld	r31, X
    1b22:	15 97       	sbiw	r26, 0x05	; 5
    1b24:	44 23       	and	r20, r20
    1b26:	39 f4       	brne	.+14     	;  0x1b36
    1b28:	90 81       	ld	r25, Z
    1b2a:	1c 96       	adiw	r26, 0x0c	; 12
    1b2c:	8c 91       	ld	r24, X
    1b2e:	1c 97       	sbiw	r26, 0x0c	; 12
    1b30:	80 95       	com	r24
    1b32:	89 23       	and	r24, r25
    1b34:	05 c0       	rjmp	.+10     	;  0x1b40
    1b36:	80 81       	ld	r24, Z
    1b38:	1c 96       	adiw	r26, 0x0c	; 12
    1b3a:	9c 91       	ld	r25, X
    1b3c:	1c 97       	sbiw	r26, 0x0c	; 12
    1b3e:	89 2b       	or	r24, r25
    1b40:	80 83       	st	Z, r24
    1b42:	20 e0       	ldi	r18, 0x00	; 0
    1b44:	12 96       	adiw	r26, 0x02	; 2
    1b46:	ed 91       	ld	r30, X+
    1b48:	fc 91       	ld	r31, X
    1b4a:	13 97       	sbiw	r26, 0x03	; 3
    1b4c:	67 ff       	sbrs	r22, 7
    1b4e:	06 c0       	rjmp	.+12     	;  0x1b5c
    1b50:	80 81       	ld	r24, Z
    1b52:	1b 96       	adiw	r26, 0x0b	; 11
    1b54:	9c 91       	ld	r25, X
    1b56:	1b 97       	sbiw	r26, 0x0b	; 11
    1b58:	89 2b       	or	r24, r25
    1b5a:	06 c0       	rjmp	.+12     	;  0x1b68
    1b5c:	90 81       	ld	r25, Z
    1b5e:	1b 96       	adiw	r26, 0x0b	; 11
    1b60:	8c 91       	ld	r24, X
    1b62:	1b 97       	sbiw	r26, 0x0b	; 11
    1b64:	80 95       	com	r24
    1b66:	89 23       	and	r24, r25
    1b68:	80 83       	st	Z, r24
    1b6a:	ed 91       	ld	r30, X+
    1b6c:	fc 91       	ld	r31, X
    1b6e:	11 97       	sbiw	r26, 0x01	; 1
    1b70:	90 81       	ld	r25, Z
    1b72:	1a 96       	adiw	r26, 0x0a	; 10
    1b74:	8c 91       	ld	r24, X
    1b76:	1a 97       	sbiw	r26, 0x0a	; 10
    1b78:	80 95       	com	r24
    1b7a:	89 23       	and	r24, r25
    1b7c:	80 83       	st	Z, r24
    1b7e:	00 00       	nop
    1b80:	ed 91       	ld	r30, X+
    1b82:	fc 91       	ld	r31, X
    1b84:	11 97       	sbiw	r26, 0x01	; 1
    1b86:	80 81       	ld	r24, Z
    1b88:	1a 96       	adiw	r26, 0x0a	; 10
    1b8a:	9c 91       	ld	r25, X
    1b8c:	1a 97       	sbiw	r26, 0x0a	; 10
    1b8e:	89 2b       	or	r24, r25
    1b90:	80 83       	st	Z, r24
    1b92:	2f 5f       	subi	r18, 0xFF	; 255
    1b94:	28 30       	cpi	r18, 0x08	; 8
    1b96:	11 f0       	breq	.+4      	;  0x1b9c
    1b98:	66 0f       	add	r22, r22
    1b9a:	d4 cf       	rjmp	.-88     	;  0x1b44
    1b9c:	18 96       	adiw	r26, 0x08	; 8
    1b9e:	ed 91       	ld	r30, X+
    1ba0:	fc 91       	ld	r31, X
    1ba2:	19 97       	sbiw	r26, 0x09	; 9
    1ba4:	80 81       	ld	r24, Z
    1ba6:	1e 96       	adiw	r26, 0x0e	; 14
    1ba8:	9c 91       	ld	r25, X
    1baa:	89 2b       	or	r24, r25
    1bac:	80 83       	st	Z, r24
    1bae:	08 95       	ret
    1bb0:	ef 92       	push	r14
    1bb2:	ff 92       	push	r15
    1bb4:	0f 93       	push	r16
    1bb6:	1f 93       	push	r17
    1bb8:	cf 93       	push	r28
    1bba:	df 93       	push	r29
    1bbc:	8c 01       	movw	r16, r24
    1bbe:	60 e4       	ldi	r22, 0x40	; 64
    1bc0:	40 e0       	ldi	r20, 0x00	; 0
    1bc2:	0e 94 82 0d 	call	0x1b04	;  0x1b04
    1bc6:	c8 01       	movw	r24, r16
    1bc8:	60 e8       	ldi	r22, 0x80	; 128
    1bca:	40 e0       	ldi	r20, 0x00	; 0
    1bcc:	0e 94 82 0d 	call	0x1b04	;  0x1b04
    1bd0:	e8 01       	movw	r28, r16
    1bd2:	88 ef       	ldi	r24, 0xF8	; 248
    1bd4:	e8 2e       	mov	r14, r24
    1bd6:	81 e0       	ldi	r24, 0x01	; 1
    1bd8:	f8 2e       	mov	r15, r24
    1bda:	e0 0e       	add	r14, r16
    1bdc:	f1 1e       	adc	r15, r17
    1bde:	c8 01       	movw	r24, r16
    1be0:	68 8d       	ldd	r22, Y+24	; 0x18
    1be2:	41 e0       	ldi	r20, 0x01	; 1
    1be4:	0e 94 82 0d 	call	0x1b04	;  0x1b04
    1be8:	21 96       	adiw	r28, 0x01	; 1
    1bea:	ce 15       	cp	r28, r14
    1bec:	df 05       	cpc	r29, r15
    1bee:	b9 f7       	brne	.-18     	;  0x1bde
    1bf0:	df 91       	pop	r29
    1bf2:	cf 91       	pop	r28
    1bf4:	1f 91       	pop	r17
    1bf6:	0f 91       	pop	r16
    1bf8:	ff 90       	pop	r15
    1bfa:	ef 90       	pop	r14
    1bfc:	08 95       	ret
    1bfe:	dc 01       	movw	r26, r24
    1c00:	64 35       	cpi	r22, 0x54	; 84
    1c02:	71 05       	cpc	r23, r1
    1c04:	10 f5       	brcc	.+68     	;  0x1c4a
    1c06:	40 33       	cpi	r20, 0x30	; 48
    1c08:	51 05       	cpc	r21, r1
    1c0a:	f8 f4       	brcc	.+62     	;  0x1c4a
    1c0c:	9a 01       	movw	r18, r20
    1c0e:	93 e0       	ldi	r25, 0x03	; 3
    1c10:	36 95       	lsr	r19
    1c12:	27 95       	ror	r18
    1c14:	9a 95       	dec	r25
    1c16:	e1 f7       	brne	.-8      	;  0x1c10
    1c18:	84 e5       	ldi	r24, 0x54	; 84
    1c1a:	90 e0       	ldi	r25, 0x00	; 0
    1c1c:	28 9f       	mul	r18, r24
    1c1e:	f0 01       	movw	r30, r0
    1c20:	29 9f       	mul	r18, r25
    1c22:	f0 0d       	add	r31, r0
    1c24:	38 9f       	mul	r19, r24
    1c26:	f0 0d       	add	r31, r0
    1c28:	11 24       	eor	r1, r1
    1c2a:	e6 0f       	add	r30, r22
    1c2c:	f7 1f       	adc	r31, r23
    1c2e:	ea 0f       	add	r30, r26
    1c30:	fb 1f       	adc	r31, r27
    1c32:	47 70       	andi	r20, 0x07	; 7
    1c34:	50 70       	andi	r21, 0x00	; 0
    1c36:	81 e0       	ldi	r24, 0x01	; 1
    1c38:	90 e0       	ldi	r25, 0x00	; 0
    1c3a:	02 c0       	rjmp	.+4      	;  0x1c40
    1c3c:	88 0f       	add	r24, r24
    1c3e:	99 1f       	adc	r25, r25
    1c40:	4a 95       	dec	r20
    1c42:	e2 f7       	brpl	.-8      	;  0x1c3c
    1c44:	20 8d       	ldd	r18, Z+24	; 0x18
    1c46:	28 2b       	or	r18, r24
    1c48:	20 8f       	std	Z+24, r18	; 0x18
    1c4a:	08 95       	ret
    1c4c:	dc 01       	movw	r26, r24
    1c4e:	64 35       	cpi	r22, 0x54	; 84
    1c50:	71 05       	cpc	r23, r1
    1c52:	18 f5       	brcc	.+70     	;  0x1c9a
    1c54:	40 33       	cpi	r20, 0x30	; 48
    1c56:	51 05       	cpc	r21, r1
    1c58:	00 f5       	brcc	.+64     	;  0x1c9a
    1c5a:	9a 01       	movw	r18, r20
    1c5c:	e3 e0       	ldi	r30, 0x03	; 3
    1c5e:	36 95       	lsr	r19
    1c60:	27 95       	ror	r18
    1c62:	ea 95       	dec	r30
    1c64:	e1 f7       	brne	.-8      	;  0x1c5e
    1c66:	84 e5       	ldi	r24, 0x54	; 84
    1c68:	90 e0       	ldi	r25, 0x00	; 0
    1c6a:	28 9f       	mul	r18, r24
    1c6c:	f0 01       	movw	r30, r0
    1c6e:	29 9f       	mul	r18, r25
    1c70:	f0 0d       	add	r31, r0
    1c72:	38 9f       	mul	r19, r24
    1c74:	f0 0d       	add	r31, r0
    1c76:	11 24       	eor	r1, r1
    1c78:	e6 0f       	add	r30, r22
    1c7a:	f7 1f       	adc	r31, r23
    1c7c:	ea 0f       	add	r30, r26
    1c7e:	fb 1f       	adc	r31, r27
    1c80:	47 70       	andi	r20, 0x07	; 7
    1c82:	50 70       	andi	r21, 0x00	; 0
    1c84:	81 e0       	ldi	r24, 0x01	; 1
    1c86:	90 e0       	ldi	r25, 0x00	; 0
    1c88:	02 c0       	rjmp	.+4      	;  0x1c8e
    1c8a:	88 0f       	add	r24, r24
    1c8c:	99 1f       	adc	r25, r25
    1c8e:	4a 95       	dec	r20
    1c90:	e2 f7       	brpl	.-8      	;  0x1c8a
    1c92:	80 95       	com	r24
    1c94:	20 8d       	ldd	r18, Z+24	; 0x18
    1c96:	28 23       	and	r18, r24
    1c98:	20 8f       	std	Z+24, r18	; 0x18
    1c9a:	08 95       	ret
    1c9c:	2f 92       	push	r2
    1c9e:	3f 92       	push	r3
    1ca0:	4f 92       	push	r4
    1ca2:	5f 92       	push	r5
    1ca4:	6f 92       	push	r6
    1ca6:	7f 92       	push	r7
    1ca8:	8f 92       	push	r8
    1caa:	9f 92       	push	r9
    1cac:	af 92       	push	r10
    1cae:	bf 92       	push	r11
    1cb0:	cf 92       	push	r12
    1cb2:	df 92       	push	r13
    1cb4:	ef 92       	push	r14
    1cb6:	ff 92       	push	r15
    1cb8:	0f 93       	push	r16
    1cba:	1f 93       	push	r17
    1cbc:	df 93       	push	r29
    1cbe:	cf 93       	push	r28
    1cc0:	00 d0       	rcall	.+0      	;  0x1cc2
    1cc2:	00 d0       	rcall	.+0      	;  0x1cc4
    1cc4:	cd b7       	in	r28, 0x3d	; 61
    1cc6:	de b7       	in	r29, 0x3e	; 62
    1cc8:	9c 83       	std	Y+4, r25	; 0x04
    1cca:	8b 83       	std	Y+3, r24	; 0x03
    1ccc:	49 83       	std	Y+1, r20	; 0x01
    1cce:	5a 83       	std	Y+2, r21	; 0x02
    1cd0:	32 2e       	mov	r3, r18
    1cd2:	23 2e       	mov	r2, r19
    1cd4:	dc 01       	movw	r26, r24
    1cd6:	54 96       	adiw	r26, 0x14	; 20
    1cd8:	2c 91       	ld	r18, X
    1cda:	54 97       	sbiw	r26, 0x14	; 20
    1cdc:	42 2f       	mov	r20, r18
    1cde:	50 e0       	ldi	r21, 0x00	; 0
    1ce0:	ca 01       	movw	r24, r20
    1ce2:	87 70       	andi	r24, 0x07	; 7
    1ce4:	90 70       	andi	r25, 0x00	; 0
    1ce6:	53 96       	adiw	r26, 0x13	; 19
    1ce8:	ec 91       	ld	r30, X
    1cea:	53 97       	sbiw	r26, 0x13	; 19
    1cec:	70 e0       	ldi	r23, 0x00	; 0
    1cee:	55 96       	adiw	r26, 0x15	; 21
    1cf0:	3c 91       	ld	r19, X
    1cf2:	89 2b       	or	r24, r25
    1cf4:	09 f0       	breq	.+2      	;  0x1cf8
    1cf6:	88 c0       	rjmp	.+272    	;  0x1e08
    1cf8:	26 95       	lsr	r18
    1cfa:	26 95       	lsr	r18
    1cfc:	26 95       	lsr	r18
    1cfe:	2e 9f       	mul	r18, r30
    1d00:	c0 01       	movw	r24, r0
    1d02:	11 24       	eor	r1, r1
    1d04:	63 1b       	sub	r22, r19
    1d06:	71 09       	sbc	r23, r1
    1d08:	86 9f       	mul	r24, r22
    1d0a:	30 01       	movw	r6, r0
    1d0c:	87 9f       	mul	r24, r23
    1d0e:	70 0c       	add	r7, r0
    1d10:	96 9f       	mul	r25, r22
    1d12:	70 0c       	add	r7, r0
    1d14:	11 24       	eor	r1, r1
    1d16:	e4 e0       	ldi	r30, 0x04	; 4
    1d18:	f0 e0       	ldi	r31, 0x00	; 0
    1d1a:	6e 0e       	add	r6, r30
    1d1c:	7f 1e       	adc	r7, r31
    1d1e:	23 2d       	mov	r18, r3
    1d20:	32 2d       	mov	r19, r2
    1d22:	c9 01       	movw	r24, r18
    1d24:	4c 01       	movw	r8, r24
    1d26:	aa 24       	eor	r10, r10
    1d28:	bb 24       	eor	r11, r11
    1d2a:	5b c0       	rjmp	.+182    	;  0x1de2
    1d2c:	00 e0       	ldi	r16, 0x00	; 0
    1d2e:	10 e0       	ldi	r17, 0x00	; 0
    1d30:	ab 81       	ldd	r26, Y+3	; 0x03
    1d32:	bc 81       	ldd	r27, Y+4	; 0x04
    1d34:	53 96       	adiw	r26, 0x13	; 19
    1d36:	8c 91       	ld	r24, X
    1d38:	53 97       	sbiw	r26, 0x13	; 19
    1d3a:	90 e0       	ldi	r25, 0x00	; 0
    1d3c:	fc 01       	movw	r30, r24
    1d3e:	ae 9e       	mul	r10, r30
    1d40:	c0 01       	movw	r24, r0
    1d42:	af 9e       	mul	r10, r31
    1d44:	90 0d       	add	r25, r0
    1d46:	be 9e       	mul	r11, r30
    1d48:	90 0d       	add	r25, r0
    1d4a:	11 24       	eor	r1, r1
    1d4c:	86 0d       	add	r24, r6
    1d4e:	97 1d       	adc	r25, r7
    1d50:	8c 0d       	add	r24, r12
    1d52:	9d 1d       	adc	r25, r13
    1d54:	51 96       	adiw	r26, 0x11	; 17
    1d56:	ed 91       	ld	r30, X+
    1d58:	fc 91       	ld	r31, X
    1d5a:	52 97       	sbiw	r26, 0x12	; 18
    1d5c:	e8 0f       	add	r30, r24
    1d5e:	f9 1f       	adc	r31, r25
    1d60:	e4 91       	lpm	r30, Z+
    1d62:	8e 2f       	mov	r24, r30
    1d64:	90 e0       	ldi	r25, 0x00	; 0
    1d66:	00 2e       	mov	r0, r16
    1d68:	02 c0       	rjmp	.+4      	;  0x1d6e
    1d6a:	95 95       	asr	r25
    1d6c:	87 95       	ror	r24
    1d6e:	0a 94       	dec	r0
    1d70:	e2 f7       	brpl	.-8      	;  0x1d6a
    1d72:	57 96       	adiw	r26, 0x17	; 23
    1d74:	9c 91       	ld	r25, X
    1d76:	57 97       	sbiw	r26, 0x17	; 23
    1d78:	80 ff       	sbrs	r24, 0
    1d7a:	07 c0       	rjmp	.+14     	;  0x1d8a
    1d7c:	a8 01       	movw	r20, r16
    1d7e:	48 0d       	add	r20, r8
    1d80:	59 1d       	adc	r21, r9
    1d82:	99 23       	and	r25, r25
    1d84:	39 f4       	brne	.+14     	;  0x1d94
    1d86:	cd 01       	movw	r24, r26
    1d88:	0d c0       	rjmp	.+26     	;  0x1da4
    1d8a:	a8 01       	movw	r20, r16
    1d8c:	48 0d       	add	r20, r8
    1d8e:	59 1d       	adc	r21, r9
    1d90:	99 23       	and	r25, r25
    1d92:	31 f4       	brne	.+12     	;  0x1da0
    1d94:	8b 81       	ldd	r24, Y+3	; 0x03
    1d96:	9c 81       	ldd	r25, Y+4	; 0x04
    1d98:	b7 01       	movw	r22, r14
    1d9a:	0e 94 26 0e 	call	0x1c4c	;  0x1c4c
    1d9e:	05 c0       	rjmp	.+10     	;  0x1daa
    1da0:	8b 81       	ldd	r24, Y+3	; 0x03
    1da2:	9c 81       	ldd	r25, Y+4	; 0x04
    1da4:	b7 01       	movw	r22, r14
    1da6:	0e 94 ff 0d 	call	0x1bfe	;  0x1bfe
    1daa:	0f 5f       	subi	r16, 0xFF	; 255
    1dac:	1f 4f       	sbci	r17, 0xFF	; 255
    1dae:	08 30       	cpi	r16, 0x08	; 8
    1db0:	11 05       	cpc	r17, r1
    1db2:	09 f0       	breq	.+2      	;  0x1db6
    1db4:	bd cf       	rjmp	.-134    	;  0x1d30
    1db6:	08 94       	sec
    1db8:	c1 1c       	adc	r12, r1
    1dba:	d1 1c       	adc	r13, r1
    1dbc:	08 94       	sec
    1dbe:	e1 1c       	adc	r14, r1
    1dc0:	f1 1c       	adc	r15, r1
    1dc2:	ab 81       	ldd	r26, Y+3	; 0x03
    1dc4:	bc 81       	ldd	r27, Y+4	; 0x04
    1dc6:	53 96       	adiw	r26, 0x13	; 19
    1dc8:	8c 91       	ld	r24, X
    1dca:	90 e0       	ldi	r25, 0x00	; 0
    1dcc:	c8 16       	cp	r12, r24
    1dce:	d9 06       	cpc	r13, r25
    1dd0:	0c f4       	brge	.+2      	;  0x1dd4
    1dd2:	ac cf       	rjmp	.-168    	;  0x1d2c
    1dd4:	08 94       	sec
    1dd6:	a1 1c       	adc	r10, r1
    1dd8:	b1 1c       	adc	r11, r1
    1dda:	e8 e0       	ldi	r30, 0x08	; 8
    1ddc:	f0 e0       	ldi	r31, 0x00	; 0
    1dde:	8e 0e       	add	r8, r30
    1de0:	9f 1e       	adc	r9, r31
    1de2:	ab 81       	ldd	r26, Y+3	; 0x03
    1de4:	bc 81       	ldd	r27, Y+4	; 0x04
    1de6:	54 96       	adiw	r26, 0x14	; 20
    1de8:	8c 91       	ld	r24, X
    1dea:	86 95       	lsr	r24
    1dec:	86 95       	lsr	r24
    1dee:	86 95       	lsr	r24
    1df0:	90 e0       	ldi	r25, 0x00	; 0
    1df2:	a8 16       	cp	r10, r24
    1df4:	b9 06       	cpc	r11, r25
    1df6:	0c f0       	brlt	.+2      	;  0x1dfa
    1df8:	8f c0       	rjmp	.+286    	;  0x1f18
    1dfa:	89 81       	ldd	r24, Y+1	; 0x01
    1dfc:	9a 81       	ldd	r25, Y+2	; 0x02
    1dfe:	9c 01       	movw	r18, r24
    1e00:	79 01       	movw	r14, r18
    1e02:	cc 24       	eor	r12, r12
    1e04:	dd 24       	eor	r13, r13
    1e06:	dd cf       	rjmp	.-70     	;  0x1dc2
    1e08:	63 1b       	sub	r22, r19
    1e0a:	71 09       	sbc	r23, r1
    1e0c:	8e 2f       	mov	r24, r30
    1e0e:	90 e0       	ldi	r25, 0x00	; 0
    1e10:	fc 01       	movw	r30, r24
    1e12:	e4 9f       	mul	r30, r20
    1e14:	c0 01       	movw	r24, r0
    1e16:	e5 9f       	mul	r30, r21
    1e18:	90 0d       	add	r25, r0
    1e1a:	f4 9f       	mul	r31, r20
    1e1c:	90 0d       	add	r25, r0
    1e1e:	11 24       	eor	r1, r1
    1e20:	13 e0       	ldi	r17, 0x03	; 3
    1e22:	95 95       	asr	r25
    1e24:	87 95       	ror	r24
    1e26:	1a 95       	dec	r17
    1e28:	e1 f7       	brne	.-8      	;  0x1e22
    1e2a:	68 9f       	mul	r22, r24
    1e2c:	50 01       	movw	r10, r0
    1e2e:	69 9f       	mul	r22, r25
    1e30:	b0 0c       	add	r11, r0
    1e32:	78 9f       	mul	r23, r24
    1e34:	b0 0c       	add	r11, r0
    1e36:	11 24       	eor	r1, r1
    1e38:	24 e0       	ldi	r18, 0x04	; 4
    1e3a:	30 e0       	ldi	r19, 0x00	; 0
    1e3c:	a2 0e       	add	r10, r18
    1e3e:	b3 1e       	adc	r11, r19
    1e40:	ab 81       	ldd	r26, Y+3	; 0x03
    1e42:	bc 81       	ldd	r27, Y+4	; 0x04
    1e44:	51 96       	adiw	r26, 0x11	; 17
    1e46:	ed 91       	ld	r30, X+
    1e48:	fc 91       	ld	r31, X
    1e4a:	52 97       	sbiw	r26, 0x12	; 18
    1e4c:	ea 0d       	add	r30, r10
    1e4e:	fb 1d       	adc	r31, r11
    1e50:	e4 91       	lpm	r30, Z+
    1e52:	4e 2e       	mov	r4, r30
    1e54:	55 24       	eor	r5, r5
    1e56:	29 81       	ldd	r18, Y+1	; 0x01
    1e58:	3a 81       	ldd	r19, Y+2	; 0x02
    1e5a:	c9 01       	movw	r24, r18
    1e5c:	7c 01       	movw	r14, r24
    1e5e:	b7 e0       	ldi	r27, 0x07	; 7
    1e60:	cb 2e       	mov	r12, r27
    1e62:	d1 2c       	mov	r13, r1
    1e64:	66 24       	eor	r6, r6
    1e66:	77 24       	eor	r7, r7
    1e68:	48 c0       	rjmp	.+144    	;  0x1efa
    1e6a:	c2 01       	movw	r24, r4
    1e6c:	0c 2c       	mov	r0, r12
    1e6e:	02 c0       	rjmp	.+4      	;  0x1e74
    1e70:	95 95       	asr	r25
    1e72:	87 95       	ror	r24
    1e74:	0a 94       	dec	r0
    1e76:	e2 f7       	brpl	.-8      	;  0x1e70
    1e78:	eb 81       	ldd	r30, Y+3	; 0x03
    1e7a:	fc 81       	ldd	r31, Y+4	; 0x04
    1e7c:	97 89       	ldd	r25, Z+23	; 0x17
    1e7e:	80 ff       	sbrs	r24, 0
    1e80:	04 c0       	rjmp	.+8      	;  0x1e8a
    1e82:	99 23       	and	r25, r25
    1e84:	21 f4       	brne	.+8      	;  0x1e8e
    1e86:	cf 01       	movw	r24, r30
    1e88:	0b c0       	rjmp	.+22     	;  0x1ea0
    1e8a:	99 23       	and	r25, r25
    1e8c:	39 f4       	brne	.+14     	;  0x1e9c
    1e8e:	8b 81       	ldd	r24, Y+3	; 0x03
    1e90:	9c 81       	ldd	r25, Y+4	; 0x04
    1e92:	b7 01       	movw	r22, r14
    1e94:	a8 01       	movw	r20, r16
    1e96:	0e 94 26 0e 	call	0x1c4c	;  0x1c4c
    1e9a:	06 c0       	rjmp	.+12     	;  0x1ea8
    1e9c:	8b 81       	ldd	r24, Y+3	; 0x03
    1e9e:	9c 81       	ldd	r25, Y+4	; 0x04
    1ea0:	b7 01       	movw	r22, r14
    1ea2:	a8 01       	movw	r20, r16
    1ea4:	0e 94 ff 0d 	call	0x1bfe	;  0x1bfe
    1ea8:	08 94       	sec
    1eaa:	c1 08       	sbc	r12, r1
    1eac:	d1 08       	sbc	r13, r1
    1eae:	d7 fe       	sbrs	r13, 7
    1eb0:	11 c0       	rjmp	.+34     	;  0x1ed4
    1eb2:	08 94       	sec
    1eb4:	a1 1c       	adc	r10, r1
    1eb6:	b1 1c       	adc	r11, r1
    1eb8:	ab 81       	ldd	r26, Y+3	; 0x03
    1eba:	bc 81       	ldd	r27, Y+4	; 0x04
    1ebc:	51 96       	adiw	r26, 0x11	; 17
    1ebe:	ed 91       	ld	r30, X+
    1ec0:	fc 91       	ld	r31, X
    1ec2:	52 97       	sbiw	r26, 0x12	; 18
    1ec4:	ea 0d       	add	r30, r10
    1ec6:	fb 1d       	adc	r31, r11
    1ec8:	e4 91       	lpm	r30, Z+
    1eca:	4e 2e       	mov	r4, r30
    1ecc:	55 24       	eor	r5, r5
    1ece:	a7 e0       	ldi	r26, 0x07	; 7
    1ed0:	ca 2e       	mov	r12, r26
    1ed2:	d1 2c       	mov	r13, r1
    1ed4:	08 94       	sec
    1ed6:	81 1c       	adc	r8, r1
    1ed8:	91 1c       	adc	r9, r1
    1eda:	0f 5f       	subi	r16, 0xFF	; 255
    1edc:	1f 4f       	sbci	r17, 0xFF	; 255
    1ede:	eb 81       	ldd	r30, Y+3	; 0x03
    1ee0:	fc 81       	ldd	r31, Y+4	; 0x04
    1ee2:	84 89       	ldd	r24, Z+20	; 0x14
    1ee4:	90 e0       	ldi	r25, 0x00	; 0
    1ee6:	88 16       	cp	r8, r24
    1ee8:	99 06       	cpc	r9, r25
    1eea:	0c f4       	brge	.+2      	;  0x1eee
    1eec:	be cf       	rjmp	.-132    	;  0x1e6a
    1eee:	08 94       	sec
    1ef0:	61 1c       	adc	r6, r1
    1ef2:	71 1c       	adc	r7, r1
    1ef4:	08 94       	sec
    1ef6:	e1 1c       	adc	r14, r1
    1ef8:	f1 1c       	adc	r15, r1
    1efa:	ab 81       	ldd	r26, Y+3	; 0x03
    1efc:	bc 81       	ldd	r27, Y+4	; 0x04
    1efe:	53 96       	adiw	r26, 0x13	; 19
    1f00:	8c 91       	ld	r24, X
    1f02:	90 e0       	ldi	r25, 0x00	; 0
    1f04:	68 16       	cp	r6, r24
    1f06:	79 06       	cpc	r7, r25
    1f08:	3c f4       	brge	.+14     	;  0x1f18
    1f0a:	83 2d       	mov	r24, r3
    1f0c:	92 2d       	mov	r25, r2
    1f0e:	9c 01       	movw	r18, r24
    1f10:	89 01       	movw	r16, r18
    1f12:	88 24       	eor	r8, r8
    1f14:	99 24       	eor	r9, r9
    1f16:	e3 cf       	rjmp	.-58     	;  0x1ede
    1f18:	0f 90       	pop	r0
    1f1a:	0f 90       	pop	r0
    1f1c:	0f 90       	pop	r0
    1f1e:	0f 90       	pop	r0
    1f20:	cf 91       	pop	r28
    1f22:	df 91       	pop	r29
    1f24:	1f 91       	pop	r17
    1f26:	0f 91       	pop	r16
    1f28:	ff 90       	pop	r15
    1f2a:	ef 90       	pop	r14
    1f2c:	df 90       	pop	r13
    1f2e:	cf 90       	pop	r12
    1f30:	bf 90       	pop	r11
    1f32:	af 90       	pop	r10
    1f34:	9f 90       	pop	r9
    1f36:	8f 90       	pop	r8
    1f38:	7f 90       	pop	r7
    1f3a:	6f 90       	pop	r6
    1f3c:	5f 90       	pop	r5
    1f3e:	4f 90       	pop	r4
    1f40:	3f 90       	pop	r3
    1f42:	2f 90       	pop	r2
    1f44:	08 95       	ret
    1f46:	dc 01       	movw	r26, r24
    1f48:	fb 01       	movw	r30, r22
    1f4a:	52 96       	adiw	r26, 0x12	; 18
    1f4c:	7c 93       	st	X, r23
    1f4e:	6e 93       	st	-X, r22
    1f50:	51 97       	sbiw	r26, 0x11	; 17
    1f52:	84 91       	lpm	r24, Z+
    1f54:	53 96       	adiw	r26, 0x13	; 19
    1f56:	8c 93       	st	X, r24
    1f58:	53 97       	sbiw	r26, 0x13	; 19
    1f5a:	31 96       	adiw	r30, 0x01	; 1
    1f5c:	84 91       	lpm	r24, Z+
    1f5e:	54 96       	adiw	r26, 0x14	; 20
    1f60:	8c 93       	st	X, r24
    1f62:	54 97       	sbiw	r26, 0x14	; 20
    1f64:	31 96       	adiw	r30, 0x01	; 1
    1f66:	84 91       	lpm	r24, Z+
    1f68:	55 96       	adiw	r26, 0x15	; 21
    1f6a:	8c 93       	st	X, r24
    1f6c:	55 97       	sbiw	r26, 0x15	; 21
    1f6e:	31 96       	adiw	r30, 0x01	; 1
    1f70:	e4 91       	lpm	r30, Z+
    1f72:	56 96       	adiw	r26, 0x16	; 22
    1f74:	ec 93       	st	X, r30
    1f76:	56 97       	sbiw	r26, 0x16	; 22
    1f78:	57 96       	adiw	r26, 0x17	; 23
    1f7a:	1c 92       	st	X, r1
    1f7c:	08 95       	ret
    1f7e:	8f 92       	push	r8
    1f80:	9f 92       	push	r9
    1f82:	af 92       	push	r10
    1f84:	bf 92       	push	r11
    1f86:	cf 92       	push	r12
    1f88:	df 92       	push	r13
    1f8a:	ef 92       	push	r14
    1f8c:	ff 92       	push	r15
    1f8e:	0f 93       	push	r16
    1f90:	1f 93       	push	r17
    1f92:	cf 93       	push	r28
    1f94:	df 93       	push	r29
    1f96:	6c 01       	movw	r12, r24
    1f98:	5b 01       	movw	r10, r22
    1f9a:	ea 01       	movw	r28, r20
    1f9c:	49 01       	movw	r8, r18
    1f9e:	db 01       	movw	r26, r22
    1fa0:	0d 90       	ld	r0, X+
    1fa2:	00 20       	and	r0, r0
    1fa4:	e9 f7       	brne	.-6      	;  0x1fa0
    1fa6:	7d 01       	movw	r14, r26
    1fa8:	08 94       	sec
    1faa:	e1 08       	sbc	r14, r1
    1fac:	f1 08       	sbc	r15, r1
    1fae:	e6 1a       	sub	r14, r22
    1fb0:	f7 0a       	sbc	r15, r23
    1fb2:	b7 e2       	ldi	r27, 0x27	; 39
    1fb4:	4f 30       	cpi	r20, 0x0F	; 15
    1fb6:	5b 07       	cpc	r21, r27
    1fb8:	79 f4       	brne	.+30     	;  0x1fd8
    1fba:	fc 01       	movw	r30, r24
    1fbc:	83 89       	ldd	r24, Z+19	; 0x13
    1fbe:	90 e0       	ldi	r25, 0x00	; 0
    1fc0:	9c 01       	movw	r18, r24
    1fc2:	2e 9d       	mul	r18, r14
    1fc4:	c0 01       	movw	r24, r0
    1fc6:	2f 9d       	mul	r18, r15
    1fc8:	90 0d       	add	r25, r0
    1fca:	3e 9d       	mul	r19, r14
    1fcc:	90 0d       	add	r25, r0
    1fce:	11 24       	eor	r1, r1
    1fd0:	c4 e5       	ldi	r28, 0x54	; 84
    1fd2:	d0 e0       	ldi	r29, 0x00	; 0
    1fd4:	c8 1b       	sub	r28, r24
    1fd6:	d9 0b       	sbc	r29, r25
    1fd8:	37 e2       	ldi	r19, 0x27	; 39
    1fda:	ce 30       	cpi	r28, 0x0E	; 14
    1fdc:	d3 07       	cpc	r29, r19
    1fde:	a1 f4       	brne	.+40     	;  0x2008
    1fe0:	d6 01       	movw	r26, r12
    1fe2:	53 96       	adiw	r26, 0x13	; 19
    1fe4:	8c 91       	ld	r24, X
    1fe6:	90 e0       	ldi	r25, 0x00	; 0
    1fe8:	8e 9d       	mul	r24, r14
    1fea:	90 01       	movw	r18, r0
    1fec:	8f 9d       	mul	r24, r15
    1fee:	30 0d       	add	r19, r0
    1ff0:	9e 9d       	mul	r25, r14
    1ff2:	30 0d       	add	r19, r0
    1ff4:	11 24       	eor	r1, r1
    1ff6:	84 e5       	ldi	r24, 0x54	; 84
    1ff8:	90 e0       	ldi	r25, 0x00	; 0
    1ffa:	82 1b       	sub	r24, r18
    1ffc:	93 0b       	sbc	r25, r19
    1ffe:	62 e0       	ldi	r22, 0x02	; 2
    2000:	70 e0       	ldi	r23, 0x00	; 0
    2002:	0e 94 55 16 	call	0x2caa	;  0x2caa
    2006:	eb 01       	movw	r28, r22
    2008:	00 e0       	ldi	r16, 0x00	; 0
    200a:	10 e0       	ldi	r17, 0x00	; 0
    200c:	16 c0       	rjmp	.+44     	;  0x203a
    200e:	f5 01       	movw	r30, r10
    2010:	61 91       	ld	r22, Z+
    2012:	5f 01       	movw	r10, r30
    2014:	d6 01       	movw	r26, r12
    2016:	53 96       	adiw	r26, 0x13	; 19
    2018:	8c 91       	ld	r24, X
    201a:	90 e0       	ldi	r25, 0x00	; 0
    201c:	08 9f       	mul	r16, r24
    201e:	a0 01       	movw	r20, r0
    2020:	09 9f       	mul	r16, r25
    2022:	50 0d       	add	r21, r0
    2024:	18 9f       	mul	r17, r24
    2026:	50 0d       	add	r21, r0
    2028:	11 24       	eor	r1, r1
    202a:	4c 0f       	add	r20, r28
    202c:	5d 1f       	adc	r21, r29
    202e:	c6 01       	movw	r24, r12
    2030:	94 01       	movw	r18, r8
    2032:	0e 94 4e 0e 	call	0x1c9c	;  0x1c9c
    2036:	0f 5f       	subi	r16, 0xFF	; 255
    2038:	1f 4f       	sbci	r17, 0xFF	; 255
    203a:	0e 15       	cp	r16, r14
    203c:	1f 05       	cpc	r17, r15
    203e:	3c f3       	brlt	.-50     	;  0x200e
    2040:	df 91       	pop	r29
    2042:	cf 91       	pop	r28
    2044:	1f 91       	pop	r17
    2046:	0f 91       	pop	r16
    2048:	ff 90       	pop	r15
    204a:	ef 90       	pop	r14
    204c:	df 90       	pop	r13
    204e:	cf 90       	pop	r12
    2050:	bf 90       	pop	r11
    2052:	af 90       	pop	r10
    2054:	9f 90       	pop	r9
    2056:	8f 90       	pop	r8
    2058:	08 95       	ret
    205a:	0f 93       	push	r16
    205c:	1f 93       	push	r17
    205e:	cf 93       	push	r28
    2060:	df 93       	push	r29
    2062:	ec 01       	movw	r28, r24
    2064:	8b 01       	movw	r16, r22
    2066:	60 38       	cpi	r22, 0x80	; 128
    2068:	71 05       	cpc	r23, r1
    206a:	1c f0       	brlt	.+6      	;  0x2072
    206c:	0f e7       	ldi	r16, 0x7F	; 127
    206e:	10 e0       	ldi	r17, 0x00	; 0
    2070:	04 c0       	rjmp	.+8      	;  0x207a
    2072:	77 ff       	sbrs	r23, 7
    2074:	02 c0       	rjmp	.+4      	;  0x207a
    2076:	00 e0       	ldi	r16, 0x00	; 0
    2078:	10 e0       	ldi	r17, 0x00	; 0
    207a:	ec 81       	ldd	r30, Y+4	; 0x04
    207c:	fd 81       	ldd	r31, Y+5	; 0x05
    207e:	80 81       	ld	r24, Z
    2080:	9c 85       	ldd	r25, Y+12	; 0x0c
    2082:	89 2b       	or	r24, r25
    2084:	80 83       	st	Z, r24
    2086:	ea 81       	ldd	r30, Y+2	; 0x02
    2088:	fb 81       	ldd	r31, Y+3	; 0x03
    208a:	80 81       	ld	r24, Z
    208c:	9b 85       	ldd	r25, Y+11	; 0x0b
    208e:	89 2b       	or	r24, r25
    2090:	80 83       	st	Z, r24
    2092:	e8 81       	ld	r30, Y
    2094:	f9 81       	ldd	r31, Y+1	; 0x01
    2096:	80 81       	ld	r24, Z
    2098:	9a 85       	ldd	r25, Y+10	; 0x0a
    209a:	89 2b       	or	r24, r25
    209c:	80 83       	st	Z, r24
    209e:	e8 85       	ldd	r30, Y+8	; 0x08
    20a0:	f9 85       	ldd	r31, Y+9	; 0x09
    20a2:	80 81       	ld	r24, Z
    20a4:	9e 85       	ldd	r25, Y+14	; 0x0e
    20a6:	89 2b       	or	r24, r25
    20a8:	80 83       	st	Z, r24
    20aa:	ee 81       	ldd	r30, Y+6	; 0x06
    20ac:	ff 81       	ldd	r31, Y+7	; 0x07
    20ae:	90 81       	ld	r25, Z
    20b0:	8d 85       	ldd	r24, Y+13	; 0x0d
    20b2:	80 95       	com	r24
    20b4:	89 23       	and	r24, r25
    20b6:	80 83       	st	Z, r24
    20b8:	6a e0       	ldi	r22, 0x0A	; 10
    20ba:	70 e0       	ldi	r23, 0x00	; 0
    20bc:	80 e0       	ldi	r24, 0x00	; 0
    20be:	90 e0       	ldi	r25, 0x00	; 0
    20c0:	0e 94 15 14 	call	0x282a	;  0x282a
    20c4:	ee 81       	ldd	r30, Y+6	; 0x06
    20c6:	ff 81       	ldd	r31, Y+7	; 0x07
    20c8:	80 81       	ld	r24, Z
    20ca:	9d 85       	ldd	r25, Y+13	; 0x0d
    20cc:	89 2b       	or	r24, r25
    20ce:	80 83       	st	Z, r24
    20d0:	ce 01       	movw	r24, r28
    20d2:	61 e2       	ldi	r22, 0x21	; 33
    20d4:	40 e0       	ldi	r20, 0x00	; 0
    20d6:	0e 94 82 0d 	call	0x1b04	;  0x1b04
    20da:	60 2f       	mov	r22, r16
    20dc:	60 68       	ori	r22, 0x80	; 128
    20de:	ce 01       	movw	r24, r28
    20e0:	40 e0       	ldi	r20, 0x00	; 0
    20e2:	0e 94 82 0d 	call	0x1b04	;  0x1b04
    20e6:	ce 01       	movw	r24, r28
    20e8:	66 e0       	ldi	r22, 0x06	; 6
    20ea:	40 e0       	ldi	r20, 0x00	; 0
    20ec:	0e 94 82 0d 	call	0x1b04	;  0x1b04
    20f0:	ce 01       	movw	r24, r28
    20f2:	63 e1       	ldi	r22, 0x13	; 19
    20f4:	40 e0       	ldi	r20, 0x00	; 0
    20f6:	0e 94 82 0d 	call	0x1b04	;  0x1b04
    20fa:	ce 01       	movw	r24, r28
    20fc:	60 e2       	ldi	r22, 0x20	; 32
    20fe:	40 e0       	ldi	r20, 0x00	; 0
    2100:	0e 94 82 0d 	call	0x1b04	;  0x1b04
    2104:	ce 01       	movw	r24, r28
    2106:	60 e4       	ldi	r22, 0x40	; 64
    2108:	40 e0       	ldi	r20, 0x00	; 0
    210a:	0e 94 82 0d 	call	0x1b04	;  0x1b04
    210e:	ce 01       	movw	r24, r28
    2110:	60 e8       	ldi	r22, 0x80	; 128
    2112:	40 e0       	ldi	r20, 0x00	; 0
    2114:	0e 94 82 0d 	call	0x1b04	;  0x1b04
    2118:	ce 01       	movw	r24, r28
    211a:	6c e0       	ldi	r22, 0x0C	; 12
    211c:	40 e0       	ldi	r20, 0x00	; 0
    211e:	0e 94 82 0d 	call	0x1b04	;  0x1b04
    2122:	fe 01       	movw	r30, r28
    2124:	80 e0       	ldi	r24, 0x00	; 0
    2126:	90 e0       	ldi	r25, 0x00	; 0
    2128:	10 8e       	std	Z+24, r1	; 0x18
    212a:	01 96       	adiw	r24, 0x01	; 1
    212c:	31 96       	adiw	r30, 0x01	; 1
    212e:	21 e0       	ldi	r18, 0x01	; 1
    2130:	88 3f       	cpi	r24, 0xF8	; 248
    2132:	92 07       	cpc	r25, r18
    2134:	c9 f7       	brne	.-14     	;  0x2128
    2136:	ce 01       	movw	r24, r28
    2138:	0e 94 d8 0d 	call	0x1bb0	;  0x1bb0
    213c:	1a 8a       	std	Y+18, r1	; 0x12
    213e:	19 8a       	std	Y+17, r1	; 0x11
    2140:	df 91       	pop	r29
    2142:	cf 91       	pop	r28
    2144:	1f 91       	pop	r17
    2146:	0f 91       	pop	r16
    2148:	08 95       	ret
    214a:	6f 92       	push	r6
    214c:	7f 92       	push	r7
    214e:	9f 92       	push	r9
    2150:	af 92       	push	r10
    2152:	bf 92       	push	r11
    2154:	cf 92       	push	r12
    2156:	df 92       	push	r13
    2158:	ef 92       	push	r14
    215a:	ff 92       	push	r15
    215c:	0f 93       	push	r16
    215e:	1f 93       	push	r17
    2160:	cf 93       	push	r28
    2162:	df 93       	push	r29
    2164:	6c 01       	movw	r12, r24
    2166:	b6 2e       	mov	r11, r22
    2168:	a4 2e       	mov	r10, r20
    216a:	92 2e       	mov	r9, r18
    216c:	a6 2f       	mov	r26, r22
    216e:	b7 2f       	mov	r27, r23
    2170:	49 e9       	ldi	r20, 0x99	; 153
    2172:	64 2e       	mov	r6, r20
    2174:	47 e0       	ldi	r20, 0x07	; 7
    2176:	74 2e       	mov	r7, r20
    2178:	f3 01       	movw	r30, r6
    217a:	ea 0f       	add	r30, r26
    217c:	fb 1f       	adc	r31, r27
    217e:	e4 91       	lpm	r30, Z+
    2180:	f0 e0       	ldi	r31, 0x00	; 0
    2182:	ee 0f       	add	r30, r30
    2184:	ff 1f       	adc	r31, r31
    2186:	65 e8       	ldi	r22, 0x85	; 133
    2188:	77 e0       	ldi	r23, 0x07	; 7
    218a:	e6 0f       	add	r30, r22
    218c:	f7 1f       	adc	r31, r23
    218e:	85 91       	lpm	r24, Z+
    2190:	94 91       	lpm	r25, Z+
    2192:	f6 01       	movw	r30, r12
    2194:	91 83       	std	Z+1, r25	; 0x01
    2196:	80 83       	st	Z, r24
    2198:	cd ea       	ldi	r28, 0xAD	; 173
    219a:	d7 e0       	ldi	r29, 0x07	; 7
    219c:	ac 0f       	add	r26, r28
    219e:	bd 1f       	adc	r27, r29
    21a0:	fd 01       	movw	r30, r26
    21a2:	84 91       	lpm	r24, Z+
    21a4:	f6 01       	movw	r30, r12
    21a6:	82 87       	std	Z+10, r24	; 0x0a
    21a8:	aa 2d       	mov	r26, r10
    21aa:	b5 2f       	mov	r27, r21
    21ac:	f3 01       	movw	r30, r6
    21ae:	ea 0f       	add	r30, r26
    21b0:	fb 1f       	adc	r31, r27
    21b2:	e4 91       	lpm	r30, Z+
    21b4:	f0 e0       	ldi	r31, 0x00	; 0
    21b6:	ee 0f       	add	r30, r30
    21b8:	ff 1f       	adc	r31, r31
    21ba:	e6 0f       	add	r30, r22
    21bc:	f7 1f       	adc	r31, r23
    21be:	85 91       	lpm	r24, Z+
    21c0:	94 91       	lpm	r25, Z+
    21c2:	f6 01       	movw	r30, r12
    21c4:	93 83       	std	Z+3, r25	; 0x03
    21c6:	82 83       	std	Z+2, r24	; 0x02
    21c8:	ac 0f       	add	r26, r28
    21ca:	bd 1f       	adc	r27, r29
    21cc:	fd 01       	movw	r30, r26
    21ce:	54 91       	lpm	r21, Z+
    21d0:	f6 01       	movw	r30, r12
    21d2:	53 87       	std	Z+11, r21	; 0x0b
    21d4:	49 2d       	mov	r20, r9
    21d6:	53 2f       	mov	r21, r19
    21d8:	f3 01       	movw	r30, r6
    21da:	e4 0f       	add	r30, r20
    21dc:	f5 1f       	adc	r31, r21
    21de:	e4 91       	lpm	r30, Z+
    21e0:	f0 e0       	ldi	r31, 0x00	; 0
    21e2:	ee 0f       	add	r30, r30
    21e4:	ff 1f       	adc	r31, r31
    21e6:	e6 0f       	add	r30, r22
    21e8:	f7 1f       	adc	r31, r23
    21ea:	85 91       	lpm	r24, Z+
    21ec:	94 91       	lpm	r25, Z+
    21ee:	f6 01       	movw	r30, r12
    21f0:	95 83       	std	Z+5, r25	; 0x05
    21f2:	84 83       	std	Z+4, r24	; 0x04
    21f4:	4c 0f       	add	r20, r28
    21f6:	5d 1f       	adc	r21, r29
    21f8:	fa 01       	movw	r30, r20
    21fa:	34 91       	lpm	r19, Z+
    21fc:	f6 01       	movw	r30, r12
    21fe:	34 87       	std	Z+12, r19	; 0x0c
    2200:	98 01       	movw	r18, r16
    2202:	f3 01       	movw	r30, r6
    2204:	e0 0f       	add	r30, r16
    2206:	f1 1f       	adc	r31, r17
    2208:	e4 91       	lpm	r30, Z+
    220a:	f0 e0       	ldi	r31, 0x00	; 0
    220c:	ee 0f       	add	r30, r30
    220e:	ff 1f       	adc	r31, r31
    2210:	e6 0f       	add	r30, r22
    2212:	f7 1f       	adc	r31, r23
    2214:	85 91       	lpm	r24, Z+
    2216:	94 91       	lpm	r25, Z+
    2218:	f6 01       	movw	r30, r12
    221a:	97 83       	std	Z+7, r25	; 0x07
    221c:	86 83       	std	Z+6, r24	; 0x06
    221e:	2c 0f       	add	r18, r28
    2220:	3d 1f       	adc	r19, r29
    2222:	f9 01       	movw	r30, r18
    2224:	14 91       	lpm	r17, Z+
    2226:	f6 01       	movw	r30, r12
    2228:	15 87       	std	Z+13, r17	; 0x0d
    222a:	6e 0c       	add	r6, r14
    222c:	7f 1c       	adc	r7, r15
    222e:	f3 01       	movw	r30, r6
    2230:	84 91       	lpm	r24, Z+
    2232:	e8 2f       	mov	r30, r24
    2234:	f0 e0       	ldi	r31, 0x00	; 0
    2236:	ee 0f       	add	r30, r30
    2238:	ff 1f       	adc	r31, r31
    223a:	e6 0f       	add	r30, r22
    223c:	f7 1f       	adc	r31, r23
    223e:	85 91       	lpm	r24, Z+
    2240:	94 91       	lpm	r25, Z+
    2242:	f6 01       	movw	r30, r12
    2244:	91 87       	std	Z+9, r25	; 0x09
    2246:	80 87       	std	Z+8, r24	; 0x08
    2248:	ce 0d       	add	r28, r14
    224a:	df 1d       	adc	r29, r15
    224c:	fe 01       	movw	r30, r28
    224e:	84 91       	lpm	r24, Z+
    2250:	f6 01       	movw	r30, r12
    2252:	86 87       	std	Z+14, r24	; 0x0e
    2254:	8b 2d       	mov	r24, r11
    2256:	61 e0       	ldi	r22, 0x01	; 1
    2258:	0e 94 76 14 	call	0x28ec	;  0x28ec
    225c:	8a 2d       	mov	r24, r10
    225e:	61 e0       	ldi	r22, 0x01	; 1
    2260:	0e 94 76 14 	call	0x28ec	;  0x28ec
    2264:	89 2d       	mov	r24, r9
    2266:	61 e0       	ldi	r22, 0x01	; 1
    2268:	0e 94 76 14 	call	0x28ec	;  0x28ec
    226c:	80 2f       	mov	r24, r16
    226e:	61 e0       	ldi	r22, 0x01	; 1
    2270:	0e 94 76 14 	call	0x28ec	;  0x28ec
    2274:	8e 2d       	mov	r24, r14
    2276:	61 e0       	ldi	r22, 0x01	; 1
    2278:	0e 94 76 14 	call	0x28ec	;  0x28ec
    227c:	f6 01       	movw	r30, r12
    227e:	b7 86       	std	Z+15, r11	; 0x0f
    2280:	00 8b       	std	Z+16, r16	; 0x10
    2282:	df 91       	pop	r29
    2284:	cf 91       	pop	r28
    2286:	1f 91       	pop	r17
    2288:	0f 91       	pop	r16
    228a:	ff 90       	pop	r15
    228c:	ef 90       	pop	r14
    228e:	df 90       	pop	r13
    2290:	cf 90       	pop	r12
    2292:	bf 90       	pop	r11
    2294:	af 90       	pop	r10
    2296:	9f 90       	pop	r9
    2298:	7f 90       	pop	r7
    229a:	6f 90       	pop	r6
    229c:	08 95       	ret
    229e:	08 95       	ret
    22a0:	1f 92       	push	r1
    22a2:	0f 92       	push	r0
    22a4:	0f b6       	in	r0, 0x3f	; 63
    22a6:	0f 92       	push	r0
    22a8:	11 24       	eor	r1, r1
    22aa:	2f 93       	push	r18
    22ac:	3f 93       	push	r19
    22ae:	4f 93       	push	r20
    22b0:	8f 93       	push	r24
    22b2:	9f 93       	push	r25
    22b4:	ef 93       	push	r30
    22b6:	ff 93       	push	r31
    22b8:	80 91 c0 00 	lds	r24, 0x00C0
    22bc:	82 fd       	sbrc	r24, 2
    22be:	1d c0       	rjmp	.+58     	;  0x22fa
    22c0:	40 91 c6 00 	lds	r20, 0x00C6
    22c4:	20 91 55 04 	lds	r18, 0x0455
    22c8:	30 91 56 04 	lds	r19, 0x0456
    22cc:	2f 5f       	subi	r18, 0xFF	; 255
    22ce:	3f 4f       	sbci	r19, 0xFF	; 255
    22d0:	2f 73       	andi	r18, 0x3F	; 63
    22d2:	30 70       	andi	r19, 0x00	; 0
    22d4:	80 91 57 04 	lds	r24, 0x0457
    22d8:	90 91 58 04 	lds	r25, 0x0458
    22dc:	28 17       	cp	r18, r24
    22de:	39 07       	cpc	r19, r25
    22e0:	71 f0       	breq	.+28     	;  0x22fe
    22e2:	e0 91 55 04 	lds	r30, 0x0455
    22e6:	f0 91 56 04 	lds	r31, 0x0456
    22ea:	eb 5e       	subi	r30, 0xEB	; 235
    22ec:	fb 4f       	sbci	r31, 0xFB	; 251
    22ee:	40 83       	st	Z, r20
    22f0:	30 93 56 04 	sts	0x0456, r19
    22f4:	20 93 55 04 	sts	0x0455, r18
    22f8:	02 c0       	rjmp	.+4      	;  0x22fe
    22fa:	80 91 c6 00 	lds	r24, 0x00C6
    22fe:	ff 91       	pop	r31
    2300:	ef 91       	pop	r30
    2302:	9f 91       	pop	r25
    2304:	8f 91       	pop	r24
    2306:	4f 91       	pop	r20
    2308:	3f 91       	pop	r19
    230a:	2f 91       	pop	r18
    230c:	0f 90       	pop	r0
    230e:	0f be       	out	0x3f, r0	; 63
    2310:	0f 90       	pop	r0
    2312:	1f 90       	pop	r1
    2314:	18 95       	reti
    2316:	e0 91 a9 04 	lds	r30, 0x04A9
    231a:	f0 91 aa 04 	lds	r31, 0x04AA
    231e:	e0 5c       	subi	r30, 0xC0	; 192
    2320:	ff 4f       	sbci	r31, 0xFF	; 255
    2322:	81 91       	ld	r24, Z+
    2324:	91 91       	ld	r25, Z+
    2326:	20 81       	ld	r18, Z
    2328:	31 81       	ldd	r19, Z+1	; 0x01
    232a:	82 1b       	sub	r24, r18
    232c:	93 0b       	sbc	r25, r19
    232e:	8f 73       	andi	r24, 0x3F	; 63
    2330:	90 70       	andi	r25, 0x00	; 0
    2332:	89 2b       	or	r24, r25
    2334:	11 f0       	breq	.+4      	;  0x233a
    2336:	0e 94 4f 11 	call	0x229e	;  0x229e
    233a:	08 95       	ret
    233c:	1f 92       	push	r1
    233e:	0f 92       	push	r0
    2340:	0f b6       	in	r0, 0x3f	; 63
    2342:	0f 92       	push	r0
    2344:	11 24       	eor	r1, r1
    2346:	2f 93       	push	r18
    2348:	3f 93       	push	r19
    234a:	8f 93       	push	r24
    234c:	9f 93       	push	r25
    234e:	ef 93       	push	r30
    2350:	ff 93       	push	r31
    2352:	20 91 99 04 	lds	r18, 0x0499
    2356:	30 91 9a 04 	lds	r19, 0x049A
    235a:	80 91 9b 04 	lds	r24, 0x049B
    235e:	90 91 9c 04 	lds	r25, 0x049C
    2362:	28 17       	cp	r18, r24
    2364:	39 07       	cpc	r19, r25
    2366:	31 f4       	brne	.+12     	;  0x2374
    2368:	80 91 c1 00 	lds	r24, 0x00C1
    236c:	8f 7d       	andi	r24, 0xDF	; 223
    236e:	80 93 c1 00 	sts	0x00C1, r24
    2372:	14 c0       	rjmp	.+40     	;  0x239c
    2374:	e0 91 9b 04 	lds	r30, 0x049B
    2378:	f0 91 9c 04 	lds	r31, 0x049C
    237c:	e7 5a       	subi	r30, 0xA7	; 167
    237e:	fb 4f       	sbci	r31, 0xFB	; 251
    2380:	20 81       	ld	r18, Z
    2382:	80 91 9b 04 	lds	r24, 0x049B
    2386:	90 91 9c 04 	lds	r25, 0x049C
    238a:	01 96       	adiw	r24, 0x01	; 1
    238c:	8f 73       	andi	r24, 0x3F	; 63
    238e:	90 70       	andi	r25, 0x00	; 0
    2390:	90 93 9c 04 	sts	0x049C, r25
    2394:	80 93 9b 04 	sts	0x049B, r24
    2398:	20 93 c6 00 	sts	0x00C6, r18
    239c:	ff 91       	pop	r31
    239e:	ef 91       	pop	r30
    23a0:	9f 91       	pop	r25
    23a2:	8f 91       	pop	r24
    23a4:	3f 91       	pop	r19
    23a6:	2f 91       	pop	r18
    23a8:	0f 90       	pop	r0
    23aa:	0f be       	out	0x3f, r0	; 63
    23ac:	0f 90       	pop	r0
    23ae:	1f 90       	pop	r1
    23b0:	18 95       	reti
    23b2:	af 92       	push	r10
    23b4:	bf 92       	push	r11
    23b6:	df 92       	push	r13
    23b8:	ef 92       	push	r14
    23ba:	ff 92       	push	r15
    23bc:	0f 93       	push	r16
    23be:	1f 93       	push	r17
    23c0:	cf 93       	push	r28
    23c2:	df 93       	push	r29
    23c4:	ec 01       	movw	r28, r24
    23c6:	7a 01       	movw	r14, r20
    23c8:	8b 01       	movw	r16, r22
    23ca:	dd 24       	eor	r13, r13
    23cc:	40 30       	cpi	r20, 0x00	; 0
    23ce:	81 ee       	ldi	r24, 0xE1	; 225
    23d0:	58 07       	cpc	r21, r24
    23d2:	80 e0       	ldi	r24, 0x00	; 0
    23d4:	68 07       	cpc	r22, r24
    23d6:	80 e0       	ldi	r24, 0x00	; 0
    23d8:	78 07       	cpc	r23, r24
    23da:	11 f0       	breq	.+4      	;  0x23e0
    23dc:	dd 24       	eor	r13, r13
    23de:	d3 94       	inc	r13
    23e0:	91 e0       	ldi	r25, 0x01	; 1
    23e2:	a9 2e       	mov	r10, r25
    23e4:	b1 2c       	mov	r11, r1
    23e6:	ec 89       	ldd	r30, Y+20	; 0x14
    23e8:	fd 89       	ldd	r31, Y+21	; 0x15
    23ea:	dd 20       	and	r13, r13
    23ec:	69 f0       	breq	.+26     	;  0x2408
    23ee:	c5 01       	movw	r24, r10
    23f0:	08 a0       	ldd	r0, Y+32	; 0x20
    23f2:	02 c0       	rjmp	.+4      	;  0x23f8
    23f4:	88 0f       	add	r24, r24
    23f6:	99 1f       	adc	r25, r25
    23f8:	0a 94       	dec	r0
    23fa:	e2 f7       	brpl	.-8      	;  0x23f4
    23fc:	80 83       	st	Z, r24
    23fe:	60 e0       	ldi	r22, 0x00	; 0
    2400:	79 e0       	ldi	r23, 0x09	; 9
    2402:	8d e3       	ldi	r24, 0x3D	; 61
    2404:	90 e0       	ldi	r25, 0x00	; 0
    2406:	05 c0       	rjmp	.+10     	;  0x2412
    2408:	10 82       	st	Z, r1
    240a:	60 e8       	ldi	r22, 0x80	; 128
    240c:	74 e8       	ldi	r23, 0x84	; 132
    240e:	8e e1       	ldi	r24, 0x1E	; 30
    2410:	90 e0       	ldi	r25, 0x00	; 0
    2412:	a8 01       	movw	r20, r16
    2414:	97 01       	movw	r18, r14
    2416:	0e 94 68 16 	call	0x2cd0	;  0x2cd0
    241a:	21 50       	subi	r18, 0x01	; 1
    241c:	30 40       	sbci	r19, 0x00	; 0
    241e:	40 40       	sbci	r20, 0x00	; 0
    2420:	50 40       	sbci	r21, 0x00	; 0
    2422:	56 95       	lsr	r21
    2424:	47 95       	ror	r20
    2426:	37 95       	ror	r19
    2428:	27 95       	ror	r18
    242a:	80 e1       	ldi	r24, 0x10	; 16
    242c:	20 30       	cpi	r18, 0x00	; 0
    242e:	38 07       	cpc	r19, r24
    2430:	20 f0       	brcs	.+8      	;  0x243a
    2432:	dd 20       	and	r13, r13
    2434:	11 f0       	breq	.+4      	;  0x243a
    2436:	dd 24       	eor	r13, r13
    2438:	d6 cf       	rjmp	.-84     	;  0x23e6
    243a:	e8 89       	ldd	r30, Y+16	; 0x10
    243c:	f9 89       	ldd	r31, Y+17	; 0x11
    243e:	30 83       	st	Z, r19
    2440:	ea 89       	ldd	r30, Y+18	; 0x12
    2442:	fb 89       	ldd	r31, Y+19	; 0x13
    2444:	20 83       	st	Z, r18
    2446:	19 a2       	std	Y+33, r1	; 0x21
    2448:	ee 89       	ldd	r30, Y+22	; 0x16
    244a:	ff 89       	ldd	r31, Y+23	; 0x17
    244c:	40 81       	ld	r20, Z
    244e:	21 e0       	ldi	r18, 0x01	; 1
    2450:	30 e0       	ldi	r19, 0x00	; 0
    2452:	c9 01       	movw	r24, r18
    2454:	0c 8c       	ldd	r0, Y+28	; 0x1c
    2456:	02 c0       	rjmp	.+4      	;  0x245c
    2458:	88 0f       	add	r24, r24
    245a:	99 1f       	adc	r25, r25
    245c:	0a 94       	dec	r0
    245e:	e2 f7       	brpl	.-8      	;  0x2458
    2460:	48 2b       	or	r20, r24
    2462:	40 83       	st	Z, r20
    2464:	ee 89       	ldd	r30, Y+22	; 0x16
    2466:	ff 89       	ldd	r31, Y+23	; 0x17
    2468:	40 81       	ld	r20, Z
    246a:	c9 01       	movw	r24, r18
    246c:	0d 8c       	ldd	r0, Y+29	; 0x1d
    246e:	02 c0       	rjmp	.+4      	;  0x2474
    2470:	88 0f       	add	r24, r24
    2472:	99 1f       	adc	r25, r25
    2474:	0a 94       	dec	r0
    2476:	e2 f7       	brpl	.-8      	;  0x2470
    2478:	48 2b       	or	r20, r24
    247a:	40 83       	st	Z, r20
    247c:	ee 89       	ldd	r30, Y+22	; 0x16
    247e:	ff 89       	ldd	r31, Y+23	; 0x17
    2480:	40 81       	ld	r20, Z
    2482:	c9 01       	movw	r24, r18
    2484:	0e 8c       	ldd	r0, Y+30	; 0x1e
    2486:	02 c0       	rjmp	.+4      	;  0x248c
    2488:	88 0f       	add	r24, r24
    248a:	99 1f       	adc	r25, r25
    248c:	0a 94       	dec	r0
    248e:	e2 f7       	brpl	.-8      	;  0x2488
    2490:	48 2b       	or	r20, r24
    2492:	40 83       	st	Z, r20
    2494:	ee 89       	ldd	r30, Y+22	; 0x16
    2496:	ff 89       	ldd	r31, Y+23	; 0x17
    2498:	80 81       	ld	r24, Z
    249a:	0f 8c       	ldd	r0, Y+31	; 0x1f
    249c:	02 c0       	rjmp	.+4      	;  0x24a2
    249e:	22 0f       	add	r18, r18
    24a0:	33 1f       	adc	r19, r19
    24a2:	0a 94       	dec	r0
    24a4:	e2 f7       	brpl	.-8      	;  0x249e
    24a6:	20 95       	com	r18
    24a8:	28 23       	and	r18, r24
    24aa:	20 83       	st	Z, r18
    24ac:	df 91       	pop	r29
    24ae:	cf 91       	pop	r28
    24b0:	1f 91       	pop	r17
    24b2:	0f 91       	pop	r16
    24b4:	ff 90       	pop	r15
    24b6:	ef 90       	pop	r14
    24b8:	df 90       	pop	r13
    24ba:	bf 90       	pop	r11
    24bc:	af 90       	pop	r10
    24be:	08 95       	ret
    24c0:	dc 01       	movw	r26, r24
    24c2:	1c 96       	adiw	r26, 0x0c	; 12
    24c4:	ed 91       	ld	r30, X+
    24c6:	fc 91       	ld	r31, X
    24c8:	1d 97       	sbiw	r26, 0x0d	; 13
    24ca:	e0 5c       	subi	r30, 0xC0	; 192
    24cc:	ff 4f       	sbci	r31, 0xFF	; 255
    24ce:	21 91       	ld	r18, Z+
    24d0:	31 91       	ld	r19, Z+
    24d2:	80 81       	ld	r24, Z
    24d4:	91 81       	ldd	r25, Z+1	; 0x01
    24d6:	28 1b       	sub	r18, r24
    24d8:	39 0b       	sbc	r19, r25
    24da:	2f 73       	andi	r18, 0x3F	; 63
    24dc:	30 70       	andi	r19, 0x00	; 0
    24de:	c9 01       	movw	r24, r18
    24e0:	08 95       	ret
    24e2:	dc 01       	movw	r26, r24
    24e4:	1c 96       	adiw	r26, 0x0c	; 12
    24e6:	ed 91       	ld	r30, X+
    24e8:	fc 91       	ld	r31, X
    24ea:	1d 97       	sbiw	r26, 0x0d	; 13
    24ec:	e0 5c       	subi	r30, 0xC0	; 192
    24ee:	ff 4f       	sbci	r31, 0xFF	; 255
    24f0:	20 81       	ld	r18, Z
    24f2:	31 81       	ldd	r19, Z+1	; 0x01
    24f4:	e0 54       	subi	r30, 0x40	; 64
    24f6:	f0 40       	sbci	r31, 0x00	; 0
    24f8:	df 01       	movw	r26, r30
    24fa:	ae 5b       	subi	r26, 0xBE	; 190
    24fc:	bf 4f       	sbci	r27, 0xFF	; 255
    24fe:	8d 91       	ld	r24, X+
    2500:	9c 91       	ld	r25, X
    2502:	11 97       	sbiw	r26, 0x01	; 1
    2504:	28 17       	cp	r18, r24
    2506:	39 07       	cpc	r19, r25
    2508:	19 f4       	brne	.+6      	;  0x2510
    250a:	2f ef       	ldi	r18, 0xFF	; 255
    250c:	3f ef       	ldi	r19, 0xFF	; 255
    250e:	07 c0       	rjmp	.+14     	;  0x251e
    2510:	8d 91       	ld	r24, X+
    2512:	9c 91       	ld	r25, X
    2514:	e8 0f       	add	r30, r24
    2516:	f9 1f       	adc	r31, r25
    2518:	80 81       	ld	r24, Z
    251a:	28 2f       	mov	r18, r24
    251c:	30 e0       	ldi	r19, 0x00	; 0
    251e:	c9 01       	movw	r24, r18
    2520:	08 95       	ret
    2522:	dc 01       	movw	r26, r24
    2524:	1c 96       	adiw	r26, 0x0c	; 12
    2526:	ed 91       	ld	r30, X+
    2528:	fc 91       	ld	r31, X
    252a:	1d 97       	sbiw	r26, 0x0d	; 13
    252c:	e0 5c       	subi	r30, 0xC0	; 192
    252e:	ff 4f       	sbci	r31, 0xFF	; 255
    2530:	20 81       	ld	r18, Z
    2532:	31 81       	ldd	r19, Z+1	; 0x01
    2534:	e0 54       	subi	r30, 0x40	; 64
    2536:	f0 40       	sbci	r31, 0x00	; 0
    2538:	df 01       	movw	r26, r30
    253a:	ae 5b       	subi	r26, 0xBE	; 190
    253c:	bf 4f       	sbci	r27, 0xFF	; 255
    253e:	8d 91       	ld	r24, X+
    2540:	9c 91       	ld	r25, X
    2542:	11 97       	sbiw	r26, 0x01	; 1
    2544:	28 17       	cp	r18, r24
    2546:	39 07       	cpc	r19, r25
    2548:	19 f4       	brne	.+6      	;  0x2550
    254a:	2f ef       	ldi	r18, 0xFF	; 255
    254c:	3f ef       	ldi	r19, 0xFF	; 255
    254e:	10 c0       	rjmp	.+32     	;  0x2570
    2550:	8d 91       	ld	r24, X+
    2552:	9c 91       	ld	r25, X
    2554:	11 97       	sbiw	r26, 0x01	; 1
    2556:	e8 0f       	add	r30, r24
    2558:	f9 1f       	adc	r31, r25
    255a:	20 81       	ld	r18, Z
    255c:	8d 91       	ld	r24, X+
    255e:	9c 91       	ld	r25, X
    2560:	11 97       	sbiw	r26, 0x01	; 1
    2562:	01 96       	adiw	r24, 0x01	; 1
    2564:	8f 73       	andi	r24, 0x3F	; 63
    2566:	90 70       	andi	r25, 0x00	; 0
    2568:	11 96       	adiw	r26, 0x01	; 1
    256a:	9c 93       	st	X, r25
    256c:	8e 93       	st	-X, r24
    256e:	30 e0       	ldi	r19, 0x00	; 0
    2570:	c9 01       	movw	r24, r18
    2572:	08 95       	ret
    2574:	dc 01       	movw	r26, r24
    2576:	91 96       	adiw	r26, 0x21	; 33
    2578:	8c 91       	ld	r24, X
    257a:	91 97       	sbiw	r26, 0x21	; 33
    257c:	88 23       	and	r24, r24
    257e:	39 f0       	breq	.+14     	;  0x258e
    2580:	54 96       	adiw	r26, 0x14	; 20
    2582:	ed 91       	ld	r30, X+
    2584:	fc 91       	ld	r31, X
    2586:	55 97       	sbiw	r26, 0x15	; 21
    2588:	80 81       	ld	r24, Z
    258a:	86 ff       	sbrs	r24, 6
    258c:	f9 cf       	rjmp	.-14     	;  0x2580
    258e:	91 96       	adiw	r26, 0x21	; 33
    2590:	1c 92       	st	X, r1
    2592:	08 95       	ret
    2594:	cf 93       	push	r28
    2596:	df 93       	push	r29
    2598:	ec 01       	movw	r28, r24
    259a:	ee 85       	ldd	r30, Y+14	; 0x0e
    259c:	ff 85       	ldd	r31, Y+15	; 0x0f
    259e:	e0 5c       	subi	r30, 0xC0	; 192
    25a0:	ff 4f       	sbci	r31, 0xFF	; 255
    25a2:	20 81       	ld	r18, Z
    25a4:	31 81       	ldd	r19, Z+1	; 0x01
    25a6:	e0 54       	subi	r30, 0x40	; 64
    25a8:	f0 40       	sbci	r31, 0x00	; 0
    25aa:	2f 5f       	subi	r18, 0xFF	; 255
    25ac:	3f 4f       	sbci	r19, 0xFF	; 255
    25ae:	2f 73       	andi	r18, 0x3F	; 63
    25b0:	30 70       	andi	r19, 0x00	; 0
    25b2:	df 01       	movw	r26, r30
    25b4:	ae 5b       	subi	r26, 0xBE	; 190
    25b6:	bf 4f       	sbci	r27, 0xFF	; 255
    25b8:	8d 91       	ld	r24, X+
    25ba:	9c 91       	ld	r25, X
    25bc:	11 97       	sbiw	r26, 0x01	; 1
    25be:	28 17       	cp	r18, r24
    25c0:	39 07       	cpc	r19, r25
    25c2:	d1 f3       	breq	.-12     	;  0x25b8
    25c4:	e0 5c       	subi	r30, 0xC0	; 192
    25c6:	ff 4f       	sbci	r31, 0xFF	; 255
    25c8:	80 81       	ld	r24, Z
    25ca:	91 81       	ldd	r25, Z+1	; 0x01
    25cc:	e0 54       	subi	r30, 0x40	; 64
    25ce:	f0 40       	sbci	r31, 0x00	; 0
    25d0:	e8 0f       	add	r30, r24
    25d2:	f9 1f       	adc	r31, r25
    25d4:	60 83       	st	Z, r22
    25d6:	ee 85       	ldd	r30, Y+14	; 0x0e
    25d8:	ff 85       	ldd	r31, Y+15	; 0x0f
    25da:	e0 5c       	subi	r30, 0xC0	; 192
    25dc:	ff 4f       	sbci	r31, 0xFF	; 255
    25de:	31 83       	std	Z+1, r19	; 0x01
    25e0:	20 83       	st	Z, r18
    25e2:	ee 89       	ldd	r30, Y+22	; 0x16
    25e4:	ff 89       	ldd	r31, Y+23	; 0x17
    25e6:	20 81       	ld	r18, Z
    25e8:	81 e0       	ldi	r24, 0x01	; 1
    25ea:	90 e0       	ldi	r25, 0x00	; 0
    25ec:	0f 8c       	ldd	r0, Y+31	; 0x1f
    25ee:	02 c0       	rjmp	.+4      	;  0x25f4
    25f0:	88 0f       	add	r24, r24
    25f2:	99 1f       	adc	r25, r25
    25f4:	0a 94       	dec	r0
    25f6:	e2 f7       	brpl	.-8      	;  0x25f0
    25f8:	28 2b       	or	r18, r24
    25fa:	20 83       	st	Z, r18
    25fc:	81 e0       	ldi	r24, 0x01	; 1
    25fe:	89 a3       	std	Y+33, r24	; 0x21
    2600:	ec 89       	ldd	r30, Y+20	; 0x14
    2602:	fd 89       	ldd	r31, Y+21	; 0x15
    2604:	80 81       	ld	r24, Z
    2606:	80 64       	ori	r24, 0x40	; 64
    2608:	80 83       	st	Z, r24
    260a:	81 e0       	ldi	r24, 0x01	; 1
    260c:	90 e0       	ldi	r25, 0x00	; 0
    260e:	df 91       	pop	r29
    2610:	cf 91       	pop	r28
    2612:	08 95       	ret
    2614:	10 92 a0 04 	sts	0x04A0, r1
    2618:	10 92 9f 04 	sts	0x049F, r1
    261c:	88 ee       	ldi	r24, 0xE8	; 232
    261e:	93 e0       	ldi	r25, 0x03	; 3
    2620:	a0 e0       	ldi	r26, 0x00	; 0
    2622:	b0 e0       	ldi	r27, 0x00	; 0
    2624:	80 93 a1 04 	sts	0x04A1, r24
    2628:	90 93 a2 04 	sts	0x04A2, r25
    262c:	a0 93 a3 04 	sts	0x04A3, r26
    2630:	b0 93 a4 04 	sts	0x04A4, r27
    2634:	8b e7       	ldi	r24, 0x7B	; 123
    2636:	91 e0       	ldi	r25, 0x01	; 1
    2638:	90 93 9e 04 	sts	0x049E, r25
    263c:	80 93 9d 04 	sts	0x049D, r24
    2640:	85 e1       	ldi	r24, 0x15	; 21
    2642:	94 e0       	ldi	r25, 0x04	; 4
    2644:	90 93 aa 04 	sts	0x04AA, r25
    2648:	80 93 a9 04 	sts	0x04A9, r24
    264c:	89 e5       	ldi	r24, 0x59	; 89
    264e:	94 e0       	ldi	r25, 0x04	; 4
    2650:	90 93 ac 04 	sts	0x04AC, r25
    2654:	80 93 ab 04 	sts	0x04AB, r24
    2658:	85 ec       	ldi	r24, 0xC5	; 197
    265a:	90 e0       	ldi	r25, 0x00	; 0
    265c:	90 93 ae 04 	sts	0x04AE, r25
    2660:	80 93 ad 04 	sts	0x04AD, r24
    2664:	84 ec       	ldi	r24, 0xC4	; 196
    2666:	90 e0       	ldi	r25, 0x00	; 0
    2668:	90 93 b0 04 	sts	0x04B0, r25
    266c:	80 93 af 04 	sts	0x04AF, r24
    2670:	80 ec       	ldi	r24, 0xC0	; 192
    2672:	90 e0       	ldi	r25, 0x00	; 0
    2674:	90 93 b2 04 	sts	0x04B2, r25
    2678:	80 93 b1 04 	sts	0x04B1, r24
    267c:	81 ec       	ldi	r24, 0xC1	; 193
    267e:	90 e0       	ldi	r25, 0x00	; 0
    2680:	90 93 b4 04 	sts	0x04B4, r25
    2684:	80 93 b3 04 	sts	0x04B3, r24
    2688:	82 ec       	ldi	r24, 0xC2	; 194
    268a:	90 e0       	ldi	r25, 0x00	; 0
    268c:	90 93 b6 04 	sts	0x04B6, r25
    2690:	80 93 b5 04 	sts	0x04B5, r24
    2694:	86 ec       	ldi	r24, 0xC6	; 198
    2696:	90 e0       	ldi	r25, 0x00	; 0
    2698:	90 93 b8 04 	sts	0x04B8, r25
    269c:	80 93 b7 04 	sts	0x04B7, r24
    26a0:	84 e0       	ldi	r24, 0x04	; 4
    26a2:	80 93 b9 04 	sts	0x04B9, r24
    26a6:	83 e0       	ldi	r24, 0x03	; 3
    26a8:	80 93 ba 04 	sts	0x04BA, r24
    26ac:	87 e0       	ldi	r24, 0x07	; 7
    26ae:	80 93 bb 04 	sts	0x04BB, r24
    26b2:	85 e0       	ldi	r24, 0x05	; 5
    26b4:	80 93 bc 04 	sts	0x04BC, r24
    26b8:	81 e0       	ldi	r24, 0x01	; 1
    26ba:	80 93 bd 04 	sts	0x04BD, r24
    26be:	08 95       	ret
    26c0:	cf 93       	push	r28
    26c2:	df 93       	push	r29
    26c4:	0e 94 3b 14 	call	0x2876	;  0x2876
    26c8:	0e 94 11 08 	call	0x1022	;  0x1022
    26cc:	cb e8       	ldi	r28, 0x8B	; 139
    26ce:	d1 e1       	ldi	r29, 0x11	; 17
    26d0:	0e 94 31 07 	call	0xe62	;  0xe62
    26d4:	20 97       	sbiw	r28, 0x00	; 0
    26d6:	e1 f3       	breq	.-8      	;  0x26d0
    26d8:	0e 94 8b 11 	call	0x2316	;  0x2316
    26dc:	f9 cf       	rjmp	.-14     	;  0x26d0
    26de:	cf 92       	push	r12
    26e0:	df 92       	push	r13
    26e2:	ef 92       	push	r14
    26e4:	ff 92       	push	r15
    26e6:	0f 93       	push	r16
    26e8:	1f 93       	push	r17
    26ea:	cf 93       	push	r28
    26ec:	df 93       	push	r29
    26ee:	7c 01       	movw	r14, r24
    26f0:	6b 01       	movw	r12, r22
    26f2:	8a 01       	movw	r16, r20
    26f4:	c0 e0       	ldi	r28, 0x00	; 0
    26f6:	d0 e0       	ldi	r29, 0x00	; 0
    26f8:	0f c0       	rjmp	.+30     	;  0x2718
    26fa:	d6 01       	movw	r26, r12
    26fc:	6d 91       	ld	r22, X+
    26fe:	6d 01       	movw	r12, r26
    2700:	d7 01       	movw	r26, r14
    2702:	ed 91       	ld	r30, X+
    2704:	fc 91       	ld	r31, X
    2706:	01 90       	ld	r0, Z+
    2708:	f0 81       	ld	r31, Z
    270a:	e0 2d       	mov	r30, r0
    270c:	c7 01       	movw	r24, r14
    270e:	09 95       	icall
    2710:	c8 0f       	add	r28, r24
    2712:	d9 1f       	adc	r29, r25
    2714:	01 50       	subi	r16, 0x01	; 1
    2716:	10 40       	sbci	r17, 0x00	; 0
    2718:	01 15       	cp	r16, r1
    271a:	11 05       	cpc	r17, r1
    271c:	71 f7       	brne	.-36     	;  0x26fa
    271e:	ce 01       	movw	r24, r28
    2720:	df 91       	pop	r29
    2722:	cf 91       	pop	r28
    2724:	1f 91       	pop	r17
    2726:	0f 91       	pop	r16
    2728:	ff 90       	pop	r15
    272a:	ef 90       	pop	r14
    272c:	df 90       	pop	r13
    272e:	cf 90       	pop	r12
    2730:	08 95       	ret
    2732:	1f 92       	push	r1
    2734:	0f 92       	push	r0
    2736:	0f b6       	in	r0, 0x3f	; 63
    2738:	0f 92       	push	r0
    273a:	11 24       	eor	r1, r1
    273c:	2f 93       	push	r18
    273e:	3f 93       	push	r19
    2740:	8f 93       	push	r24
    2742:	9f 93       	push	r25
    2744:	af 93       	push	r26
    2746:	bf 93       	push	r27
    2748:	80 91 c3 04 	lds	r24, 0x04C3
    274c:	90 91 c4 04 	lds	r25, 0x04C4
    2750:	a0 91 c5 04 	lds	r26, 0x04C5
    2754:	b0 91 c6 04 	lds	r27, 0x04C6
    2758:	30 91 c7 04 	lds	r19, 0x04C7
    275c:	01 96       	adiw	r24, 0x01	; 1
    275e:	a1 1d       	adc	r26, r1
    2760:	b1 1d       	adc	r27, r1
    2762:	23 2f       	mov	r18, r19
    2764:	2d 5f       	subi	r18, 0xFD	; 253
    2766:	2d 37       	cpi	r18, 0x7D	; 125
    2768:	20 f0       	brcs	.+8      	;  0x2772
    276a:	2d 57       	subi	r18, 0x7D	; 125
    276c:	01 96       	adiw	r24, 0x01	; 1
    276e:	a1 1d       	adc	r26, r1
    2770:	b1 1d       	adc	r27, r1
    2772:	20 93 c7 04 	sts	0x04C7, r18
    2776:	80 93 c3 04 	sts	0x04C3, r24
    277a:	90 93 c4 04 	sts	0x04C4, r25
    277e:	a0 93 c5 04 	sts	0x04C5, r26
    2782:	b0 93 c6 04 	sts	0x04C6, r27
    2786:	80 91 bf 04 	lds	r24, 0x04BF
    278a:	90 91 c0 04 	lds	r25, 0x04C0
    278e:	a0 91 c1 04 	lds	r26, 0x04C1
    2792:	b0 91 c2 04 	lds	r27, 0x04C2
    2796:	01 96       	adiw	r24, 0x01	; 1
    2798:	a1 1d       	adc	r26, r1
    279a:	b1 1d       	adc	r27, r1
    279c:	80 93 bf 04 	sts	0x04BF, r24
    27a0:	90 93 c0 04 	sts	0x04C0, r25
    27a4:	a0 93 c1 04 	sts	0x04C1, r26
    27a8:	b0 93 c2 04 	sts	0x04C2, r27
    27ac:	bf 91       	pop	r27
    27ae:	af 91       	pop	r26
    27b0:	9f 91       	pop	r25
    27b2:	8f 91       	pop	r24
    27b4:	3f 91       	pop	r19
    27b6:	2f 91       	pop	r18
    27b8:	0f 90       	pop	r0
    27ba:	0f be       	out	0x3f, r0	; 63
    27bc:	0f 90       	pop	r0
    27be:	1f 90       	pop	r1
    27c0:	18 95       	reti
    27c2:	8f b7       	in	r24, 0x3f	; 63
    27c4:	f8 94       	cli
    27c6:	20 91 c3 04 	lds	r18, 0x04C3
    27ca:	30 91 c4 04 	lds	r19, 0x04C4
    27ce:	40 91 c5 04 	lds	r20, 0x04C5
    27d2:	50 91 c6 04 	lds	r21, 0x04C6
    27d6:	8f bf       	out	0x3f, r24	; 63
    27d8:	b9 01       	movw	r22, r18
    27da:	ca 01       	movw	r24, r20
    27dc:	08 95       	ret
    27de:	9f b7       	in	r25, 0x3f	; 63
    27e0:	f8 94       	cli
    27e2:	20 91 bf 04 	lds	r18, 0x04BF
    27e6:	30 91 c0 04 	lds	r19, 0x04C0
    27ea:	40 91 c1 04 	lds	r20, 0x04C1
    27ee:	50 91 c2 04 	lds	r21, 0x04C2
    27f2:	86 b5       	in	r24, 0x26	; 38
    27f4:	a8 9b       	sbis	0x15, 0	; 21
    27f6:	06 c0       	rjmp	.+12     	;  0x2804
    27f8:	8f 3f       	cpi	r24, 0xFF	; 255
    27fa:	21 f0       	breq	.+8      	;  0x2804
    27fc:	2f 5f       	subi	r18, 0xFF	; 255
    27fe:	3f 4f       	sbci	r19, 0xFF	; 255
    2800:	4f 4f       	sbci	r20, 0xFF	; 255
    2802:	5f 4f       	sbci	r21, 0xFF	; 255
    2804:	9f bf       	out	0x3f, r25	; 63
    2806:	54 2f       	mov	r21, r20
    2808:	43 2f       	mov	r20, r19
    280a:	32 2f       	mov	r19, r18
    280c:	22 27       	eor	r18, r18
    280e:	28 0f       	add	r18, r24
    2810:	31 1d       	adc	r19, r1
    2812:	41 1d       	adc	r20, r1
    2814:	51 1d       	adc	r21, r1
    2816:	82 e0       	ldi	r24, 0x02	; 2
    2818:	22 0f       	add	r18, r18
    281a:	33 1f       	adc	r19, r19
    281c:	44 1f       	adc	r20, r20
    281e:	55 1f       	adc	r21, r21
    2820:	8a 95       	dec	r24
    2822:	d1 f7       	brne	.-12     	;  0x2818
    2824:	b9 01       	movw	r22, r18
    2826:	ca 01       	movw	r24, r20
    2828:	08 95       	ret
    282a:	ef 92       	push	r14
    282c:	ff 92       	push	r15
    282e:	0f 93       	push	r16
    2830:	1f 93       	push	r17
    2832:	cf 93       	push	r28
    2834:	df 93       	push	r29
    2836:	7b 01       	movw	r14, r22
    2838:	8c 01       	movw	r16, r24
    283a:	0e 94 ef 13 	call	0x27de	;  0x27de
    283e:	eb 01       	movw	r28, r22
    2840:	0e c0       	rjmp	.+28     	;  0x285e
    2842:	0e 94 ef 13 	call	0x27de	;  0x27de
    2846:	6c 1b       	sub	r22, r28
    2848:	7d 0b       	sbc	r23, r29
    284a:	68 5e       	subi	r22, 0xE8	; 232
    284c:	73 40       	sbci	r23, 0x03	; 3
    284e:	c8 f3       	brcs	.-14     	;  0x2842
    2850:	08 94       	sec
    2852:	e1 08       	sbc	r14, r1
    2854:	f1 08       	sbc	r15, r1
    2856:	01 09       	sbc	r16, r1
    2858:	11 09       	sbc	r17, r1
    285a:	c8 51       	subi	r28, 0x18	; 24
    285c:	dc 4f       	sbci	r29, 0xFC	; 252
    285e:	e1 14       	cp	r14, r1
    2860:	f1 04       	cpc	r15, r1
    2862:	01 05       	cpc	r16, r1
    2864:	11 05       	cpc	r17, r1
    2866:	69 f7       	brne	.-38     	;  0x2842
    2868:	df 91       	pop	r29
    286a:	cf 91       	pop	r28
    286c:	1f 91       	pop	r17
    286e:	0f 91       	pop	r16
    2870:	ff 90       	pop	r15
    2872:	ef 90       	pop	r14
    2874:	08 95       	ret
    2876:	78 94       	sei
    2878:	84 b5       	in	r24, 0x24	; 36
    287a:	82 60       	ori	r24, 0x02	; 2
    287c:	84 bd       	out	0x24, r24	; 36
    287e:	84 b5       	in	r24, 0x24	; 36
    2880:	81 60       	ori	r24, 0x01	; 1
    2882:	84 bd       	out	0x24, r24	; 36
    2884:	85 b5       	in	r24, 0x25	; 37
    2886:	82 60       	ori	r24, 0x02	; 2
    2888:	85 bd       	out	0x25, r24	; 37
    288a:	85 b5       	in	r24, 0x25	; 37
    288c:	81 60       	ori	r24, 0x01	; 1
    288e:	85 bd       	out	0x25, r24	; 37
    2890:	ee e6       	ldi	r30, 0x6E	; 110
    2892:	f0 e0       	ldi	r31, 0x00	; 0
    2894:	80 81       	ld	r24, Z
    2896:	81 60       	ori	r24, 0x01	; 1
    2898:	80 83       	st	Z, r24
    289a:	e1 e8       	ldi	r30, 0x81	; 129
    289c:	f0 e0       	ldi	r31, 0x00	; 0
    289e:	10 82       	st	Z, r1
    28a0:	80 81       	ld	r24, Z
    28a2:	82 60       	ori	r24, 0x02	; 2
    28a4:	80 83       	st	Z, r24
    28a6:	80 81       	ld	r24, Z
    28a8:	81 60       	ori	r24, 0x01	; 1
    28aa:	80 83       	st	Z, r24
    28ac:	e0 e8       	ldi	r30, 0x80	; 128
    28ae:	f0 e0       	ldi	r31, 0x00	; 0
    28b0:	80 81       	ld	r24, Z
    28b2:	81 60       	ori	r24, 0x01	; 1
    28b4:	80 83       	st	Z, r24
    28b6:	e1 eb       	ldi	r30, 0xB1	; 177
    28b8:	f0 e0       	ldi	r31, 0x00	; 0
    28ba:	80 81       	ld	r24, Z
    28bc:	84 60       	ori	r24, 0x04	; 4
    28be:	80 83       	st	Z, r24
    28c0:	e0 eb       	ldi	r30, 0xB0	; 176
    28c2:	f0 e0       	ldi	r31, 0x00	; 0
    28c4:	80 81       	ld	r24, Z
    28c6:	81 60       	ori	r24, 0x01	; 1
    28c8:	80 83       	st	Z, r24
    28ca:	ea e7       	ldi	r30, 0x7A	; 122
    28cc:	f0 e0       	ldi	r31, 0x00	; 0
    28ce:	80 81       	ld	r24, Z
    28d0:	84 60       	ori	r24, 0x04	; 4
    28d2:	80 83       	st	Z, r24
    28d4:	80 81       	ld	r24, Z
    28d6:	82 60       	ori	r24, 0x02	; 2
    28d8:	80 83       	st	Z, r24
    28da:	80 81       	ld	r24, Z
    28dc:	81 60       	ori	r24, 0x01	; 1
    28de:	80 83       	st	Z, r24
    28e0:	80 81       	ld	r24, Z
    28e2:	80 68       	ori	r24, 0x80	; 128
    28e4:	80 83       	st	Z, r24
    28e6:	10 92 c1 00 	sts	0x00C1, r1
    28ea:	08 95       	ret
    28ec:	cf 93       	push	r28
    28ee:	df 93       	push	r29
    28f0:	48 2f       	mov	r20, r24
    28f2:	50 e0       	ldi	r21, 0x00	; 0
    28f4:	ca 01       	movw	r24, r20
    28f6:	83 55       	subi	r24, 0x53	; 83
    28f8:	98 4f       	sbci	r25, 0xF8	; 248
    28fa:	fc 01       	movw	r30, r24
    28fc:	34 91       	lpm	r19, Z+
    28fe:	47 56       	subi	r20, 0x67	; 103
    2900:	58 4f       	sbci	r21, 0xF8	; 248
    2902:	fa 01       	movw	r30, r20
    2904:	84 91       	lpm	r24, Z+
    2906:	88 23       	and	r24, r24
    2908:	69 f1       	breq	.+90     	;  0x2964
    290a:	90 e0       	ldi	r25, 0x00	; 0
    290c:	88 0f       	add	r24, r24
    290e:	99 1f       	adc	r25, r25
    2910:	fc 01       	movw	r30, r24
    2912:	e5 58       	subi	r30, 0x85	; 133
    2914:	f8 4f       	sbci	r31, 0xF8	; 248
    2916:	a5 91       	lpm	r26, Z+
    2918:	b4 91       	lpm	r27, Z+
    291a:	fc 01       	movw	r30, r24
    291c:	eb 57       	subi	r30, 0x7B	; 123
    291e:	f8 4f       	sbci	r31, 0xF8	; 248
    2920:	c5 91       	lpm	r28, Z+
    2922:	d4 91       	lpm	r29, Z+
    2924:	66 23       	and	r22, r22
    2926:	51 f4       	brne	.+20     	;  0x293c
    2928:	2f b7       	in	r18, 0x3f	; 63
    292a:	f8 94       	cli
    292c:	8c 91       	ld	r24, X
    292e:	93 2f       	mov	r25, r19
    2930:	90 95       	com	r25
    2932:	89 23       	and	r24, r25
    2934:	8c 93       	st	X, r24
    2936:	88 81       	ld	r24, Y
    2938:	89 23       	and	r24, r25
    293a:	0b c0       	rjmp	.+22     	;  0x2952
    293c:	62 30       	cpi	r22, 0x02	; 2
    293e:	61 f4       	brne	.+24     	;  0x2958
    2940:	2f b7       	in	r18, 0x3f	; 63
    2942:	f8 94       	cli
    2944:	8c 91       	ld	r24, X
    2946:	93 2f       	mov	r25, r19
    2948:	90 95       	com	r25
    294a:	89 23       	and	r24, r25
    294c:	8c 93       	st	X, r24
    294e:	88 81       	ld	r24, Y
    2950:	83 2b       	or	r24, r19
    2952:	88 83       	st	Y, r24
    2954:	2f bf       	out	0x3f, r18	; 63
    2956:	06 c0       	rjmp	.+12     	;  0x2964
    2958:	9f b7       	in	r25, 0x3f	; 63
    295a:	f8 94       	cli
    295c:	8c 91       	ld	r24, X
    295e:	83 2b       	or	r24, r19
    2960:	8c 93       	st	X, r24
    2962:	9f bf       	out	0x3f, r25	; 63
    2964:	df 91       	pop	r29
    2966:	cf 91       	pop	r28
    2968:	08 95       	ret
    296a:	a8 d0       	rcall	.+336    	;  0x2abc
    296c:	08 f4       	brcc	.+2      	;  0x2970
    296e:	81 e0       	ldi	r24, 0x01	; 1
    2970:	08 95       	ret
    2972:	0c d0       	rcall	.+24     	;  0x298c
    2974:	de c0       	rjmp	.+444    	;  0x2b32
    2976:	d6 d0       	rcall	.+428    	;  0x2b24
    2978:	40 f0       	brcs	.+16     	;  0x298a
    297a:	cd d0       	rcall	.+410    	;  0x2b16
    297c:	30 f0       	brcs	.+12     	;  0x298a
    297e:	21 f4       	brne	.+8      	;  0x2988
    2980:	5f 3f       	cpi	r21, 0xFF	; 255
    2982:	19 f0       	breq	.+6      	;  0x298a
    2984:	bf c0       	rjmp	.+382    	;  0x2b04
    2986:	51 11       	cpse	r21, r1
    2988:	08 c1       	rjmp	.+528    	;  0x2b9a
    298a:	c2 c0       	rjmp	.+388    	;  0x2b10
    298c:	e3 d0       	rcall	.+454    	;  0x2b54
    298e:	98 f3       	brcs	.-26     	;  0x2976
    2990:	99 23       	and	r25, r25
    2992:	c9 f3       	breq	.-14     	;  0x2986
    2994:	55 23       	and	r21, r21
    2996:	b1 f3       	breq	.-20     	;  0x2984
    2998:	95 1b       	sub	r25, r21
    299a:	55 0b       	sbc	r21, r21
    299c:	bb 27       	eor	r27, r27
    299e:	aa 27       	eor	r26, r26
    29a0:	62 17       	cp	r22, r18
    29a2:	73 07       	cpc	r23, r19
    29a4:	84 07       	cpc	r24, r20
    29a6:	38 f0       	brcs	.+14     	;  0x29b6
    29a8:	9f 5f       	subi	r25, 0xFF	; 255
    29aa:	5f 4f       	sbci	r21, 0xFF	; 255
    29ac:	22 0f       	add	r18, r18
    29ae:	33 1f       	adc	r19, r19
    29b0:	44 1f       	adc	r20, r20
    29b2:	aa 1f       	adc	r26, r26
    29b4:	a9 f3       	breq	.-22     	;  0x29a0
    29b6:	33 d0       	rcall	.+102    	;  0x2a1e
    29b8:	0e 2e       	mov	r0, r30
    29ba:	3a f0       	brmi	.+14     	;  0x29ca
    29bc:	e0 e8       	ldi	r30, 0x80	; 128
    29be:	30 d0       	rcall	.+96     	;  0x2a20
    29c0:	91 50       	subi	r25, 0x01	; 1
    29c2:	50 40       	sbci	r21, 0x00	; 0
    29c4:	e6 95       	lsr	r30
    29c6:	00 1c       	adc	r0, r0
    29c8:	ca f7       	brpl	.-14     	;  0x29bc
    29ca:	29 d0       	rcall	.+82     	;  0x2a1e
    29cc:	fe 2f       	mov	r31, r30
    29ce:	27 d0       	rcall	.+78     	;  0x2a1e
    29d0:	66 0f       	add	r22, r22
    29d2:	77 1f       	adc	r23, r23
    29d4:	88 1f       	adc	r24, r24
    29d6:	bb 1f       	adc	r27, r27
    29d8:	26 17       	cp	r18, r22
    29da:	37 07       	cpc	r19, r23
    29dc:	48 07       	cpc	r20, r24
    29de:	ab 07       	cpc	r26, r27
    29e0:	b0 e8       	ldi	r27, 0x80	; 128
    29e2:	09 f0       	breq	.+2      	;  0x29e6
    29e4:	bb 0b       	sbc	r27, r27
    29e6:	80 2d       	mov	r24, r0
    29e8:	bf 01       	movw	r22, r30
    29ea:	ff 27       	eor	r31, r31
    29ec:	93 58       	subi	r25, 0x83	; 131
    29ee:	5f 4f       	sbci	r21, 0xFF	; 255
    29f0:	2a f0       	brmi	.+10     	;  0x29fc
    29f2:	9e 3f       	cpi	r25, 0xFE	; 254
    29f4:	51 05       	cpc	r21, r1
    29f6:	68 f0       	brcs	.+26     	;  0x2a12
    29f8:	85 c0       	rjmp	.+266    	;  0x2b04
    29fa:	cf c0       	rjmp	.+414    	;  0x2b9a
    29fc:	5f 3f       	cpi	r21, 0xFF	; 255
    29fe:	ec f3       	brlt	.-6      	;  0x29fa
    2a00:	98 3e       	cpi	r25, 0xE8	; 232
    2a02:	dc f3       	brlt	.-10     	;  0x29fa
    2a04:	86 95       	lsr	r24
    2a06:	77 95       	ror	r23
    2a08:	67 95       	ror	r22
    2a0a:	b7 95       	ror	r27
    2a0c:	f7 95       	ror	r31
    2a0e:	9f 5f       	subi	r25, 0xFF	; 255
    2a10:	c9 f7       	brne	.-14     	;  0x2a04
    2a12:	88 0f       	add	r24, r24
    2a14:	91 1d       	adc	r25, r1
    2a16:	96 95       	lsr	r25
    2a18:	87 95       	ror	r24
    2a1a:	97 f9       	bld	r25, 7
    2a1c:	08 95       	ret
    2a1e:	e1 e0       	ldi	r30, 0x01	; 1
    2a20:	66 0f       	add	r22, r22
    2a22:	77 1f       	adc	r23, r23
    2a24:	88 1f       	adc	r24, r24
    2a26:	bb 1f       	adc	r27, r27
    2a28:	62 17       	cp	r22, r18
    2a2a:	73 07       	cpc	r23, r19
    2a2c:	84 07       	cpc	r24, r20
    2a2e:	ba 07       	cpc	r27, r26
    2a30:	20 f0       	brcs	.+8      	;  0x2a3a
    2a32:	62 1b       	sub	r22, r18
    2a34:	73 0b       	sbc	r23, r19
    2a36:	84 0b       	sbc	r24, r20
    2a38:	ba 0b       	sbc	r27, r26
    2a3a:	ee 1f       	adc	r30, r30
    2a3c:	88 f7       	brcc	.-30     	;  0x2a20
    2a3e:	e0 95       	com	r30
    2a40:	08 95       	ret
    2a42:	e8 94       	clt
    2a44:	09 c0       	rjmp	.+18     	;  0x2a58
    2a46:	97 fb       	bst	r25, 7
    2a48:	3e f4       	brtc	.+14     	;  0x2a58
    2a4a:	90 95       	com	r25
    2a4c:	80 95       	com	r24
    2a4e:	70 95       	com	r23
    2a50:	61 95       	neg	r22
    2a52:	7f 4f       	sbci	r23, 0xFF	; 255
    2a54:	8f 4f       	sbci	r24, 0xFF	; 255
    2a56:	9f 4f       	sbci	r25, 0xFF	; 255
    2a58:	99 23       	and	r25, r25
    2a5a:	a9 f0       	breq	.+42     	;  0x2a86
    2a5c:	f9 2f       	mov	r31, r25
    2a5e:	96 e9       	ldi	r25, 0x96	; 150
    2a60:	bb 27       	eor	r27, r27
    2a62:	93 95       	inc	r25
    2a64:	f6 95       	lsr	r31
    2a66:	87 95       	ror	r24
    2a68:	77 95       	ror	r23
    2a6a:	67 95       	ror	r22
    2a6c:	b7 95       	ror	r27
    2a6e:	f1 11       	cpse	r31, r1
    2a70:	f8 cf       	rjmp	.-16     	;  0x2a62
    2a72:	fa f4       	brpl	.+62     	;  0x2ab2
    2a74:	bb 0f       	add	r27, r27
    2a76:	11 f4       	brne	.+4      	;  0x2a7c
    2a78:	60 ff       	sbrs	r22, 0
    2a7a:	1b c0       	rjmp	.+54     	;  0x2ab2
    2a7c:	6f 5f       	subi	r22, 0xFF	; 255
    2a7e:	7f 4f       	sbci	r23, 0xFF	; 255
    2a80:	8f 4f       	sbci	r24, 0xFF	; 255
    2a82:	9f 4f       	sbci	r25, 0xFF	; 255
    2a84:	16 c0       	rjmp	.+44     	;  0x2ab2
    2a86:	88 23       	and	r24, r24
    2a88:	11 f0       	breq	.+4      	;  0x2a8e
    2a8a:	96 e9       	ldi	r25, 0x96	; 150
    2a8c:	11 c0       	rjmp	.+34     	;  0x2ab0
    2a8e:	77 23       	and	r23, r23
    2a90:	21 f0       	breq	.+8      	;  0x2a9a
    2a92:	9e e8       	ldi	r25, 0x8E	; 142
    2a94:	87 2f       	mov	r24, r23
    2a96:	76 2f       	mov	r23, r22
    2a98:	05 c0       	rjmp	.+10     	;  0x2aa4
    2a9a:	66 23       	and	r22, r22
    2a9c:	71 f0       	breq	.+28     	;  0x2aba
    2a9e:	96 e8       	ldi	r25, 0x86	; 134
    2aa0:	86 2f       	mov	r24, r22
    2aa2:	70 e0       	ldi	r23, 0x00	; 0
    2aa4:	60 e0       	ldi	r22, 0x00	; 0
    2aa6:	2a f0       	brmi	.+10     	;  0x2ab2
    2aa8:	9a 95       	dec	r25
    2aaa:	66 0f       	add	r22, r22
    2aac:	77 1f       	adc	r23, r23
    2aae:	88 1f       	adc	r24, r24
    2ab0:	da f7       	brpl	.-10     	;  0x2aa8
    2ab2:	88 0f       	add	r24, r24
    2ab4:	96 95       	lsr	r25
    2ab6:	87 95       	ror	r24
    2ab8:	97 f9       	bld	r25, 7
    2aba:	08 95       	ret
    2abc:	99 0f       	add	r25, r25
    2abe:	00 08       	sbc	r0, r0
    2ac0:	55 0f       	add	r21, r21
    2ac2:	aa 0b       	sbc	r26, r26
    2ac4:	e0 e8       	ldi	r30, 0x80	; 128
    2ac6:	fe ef       	ldi	r31, 0xFE	; 254
    2ac8:	16 16       	cp	r1, r22
    2aca:	17 06       	cpc	r1, r23
    2acc:	e8 07       	cpc	r30, r24
    2ace:	f9 07       	cpc	r31, r25
    2ad0:	c0 f0       	brcs	.+48     	;  0x2b02
    2ad2:	12 16       	cp	r1, r18
    2ad4:	13 06       	cpc	r1, r19
    2ad6:	e4 07       	cpc	r30, r20
    2ad8:	f5 07       	cpc	r31, r21
    2ada:	98 f0       	brcs	.+38     	;  0x2b02
    2adc:	62 1b       	sub	r22, r18
    2ade:	73 0b       	sbc	r23, r19
    2ae0:	84 0b       	sbc	r24, r20
    2ae2:	95 0b       	sbc	r25, r21
    2ae4:	39 f4       	brne	.+14     	;  0x2af4
    2ae6:	0a 26       	eor	r0, r26
    2ae8:	61 f0       	breq	.+24     	;  0x2b02
    2aea:	23 2b       	or	r18, r19
    2aec:	24 2b       	or	r18, r20
    2aee:	25 2b       	or	r18, r21
    2af0:	21 f4       	brne	.+8      	;  0x2afa
    2af2:	08 95       	ret
    2af4:	0a 26       	eor	r0, r26
    2af6:	09 f4       	brne	.+2      	;  0x2afa
    2af8:	a1 40       	sbci	r26, 0x01	; 1
    2afa:	a6 95       	lsr	r26
    2afc:	8f ef       	ldi	r24, 0xFF	; 255
    2afe:	81 1d       	adc	r24, r1
    2b00:	81 1d       	adc	r24, r1
    2b02:	08 95       	ret
    2b04:	97 f9       	bld	r25, 7
    2b06:	9f 67       	ori	r25, 0x7F	; 127
    2b08:	80 e8       	ldi	r24, 0x80	; 128
    2b0a:	70 e0       	ldi	r23, 0x00	; 0
    2b0c:	60 e0       	ldi	r22, 0x00	; 0
    2b0e:	08 95       	ret
    2b10:	9f ef       	ldi	r25, 0xFF	; 255
    2b12:	80 ec       	ldi	r24, 0xC0	; 192
    2b14:	08 95       	ret
    2b16:	00 24       	eor	r0, r0
    2b18:	0a 94       	dec	r0
    2b1a:	16 16       	cp	r1, r22
    2b1c:	17 06       	cpc	r1, r23
    2b1e:	18 06       	cpc	r1, r24
    2b20:	09 06       	cpc	r0, r25
    2b22:	08 95       	ret
    2b24:	00 24       	eor	r0, r0
    2b26:	0a 94       	dec	r0
    2b28:	12 16       	cp	r1, r18
    2b2a:	13 06       	cpc	r1, r19
    2b2c:	14 06       	cpc	r1, r20
    2b2e:	05 06       	cpc	r0, r21
    2b30:	08 95       	ret
    2b32:	09 2e       	mov	r0, r25
    2b34:	03 94       	inc	r0
    2b36:	00 0c       	add	r0, r0
    2b38:	11 f4       	brne	.+4      	;  0x2b3e
    2b3a:	88 23       	and	r24, r24
    2b3c:	52 f0       	brmi	.+20     	;  0x2b52
    2b3e:	bb 0f       	add	r27, r27
    2b40:	40 f4       	brcc	.+16     	;  0x2b52
    2b42:	bf 2b       	or	r27, r31
    2b44:	11 f4       	brne	.+4      	;  0x2b4a
    2b46:	60 ff       	sbrs	r22, 0
    2b48:	04 c0       	rjmp	.+8      	;  0x2b52
    2b4a:	6f 5f       	subi	r22, 0xFF	; 255
    2b4c:	7f 4f       	sbci	r23, 0xFF	; 255
    2b4e:	8f 4f       	sbci	r24, 0xFF	; 255
    2b50:	9f 4f       	sbci	r25, 0xFF	; 255
    2b52:	08 95       	ret
    2b54:	57 fd       	sbrc	r21, 7
    2b56:	90 58       	subi	r25, 0x80	; 128
    2b58:	44 0f       	add	r20, r20
    2b5a:	55 1f       	adc	r21, r21
    2b5c:	59 f0       	breq	.+22     	;  0x2b74
    2b5e:	5f 3f       	cpi	r21, 0xFF	; 255
    2b60:	71 f0       	breq	.+28     	;  0x2b7e
    2b62:	47 95       	ror	r20
    2b64:	88 0f       	add	r24, r24
    2b66:	97 fb       	bst	r25, 7
    2b68:	99 1f       	adc	r25, r25
    2b6a:	61 f0       	breq	.+24     	;  0x2b84
    2b6c:	9f 3f       	cpi	r25, 0xFF	; 255
    2b6e:	79 f0       	breq	.+30     	;  0x2b8e
    2b70:	87 95       	ror	r24
    2b72:	08 95       	ret
    2b74:	12 16       	cp	r1, r18
    2b76:	13 06       	cpc	r1, r19
    2b78:	14 06       	cpc	r1, r20
    2b7a:	55 1f       	adc	r21, r21
    2b7c:	f2 cf       	rjmp	.-28     	;  0x2b62
    2b7e:	46 95       	lsr	r20
    2b80:	f1 df       	rcall	.-30     	;  0x2b64
    2b82:	08 c0       	rjmp	.+16     	;  0x2b94
    2b84:	16 16       	cp	r1, r22
    2b86:	17 06       	cpc	r1, r23
    2b88:	18 06       	cpc	r1, r24
    2b8a:	99 1f       	adc	r25, r25
    2b8c:	f1 cf       	rjmp	.-30     	;  0x2b70
    2b8e:	86 95       	lsr	r24
    2b90:	71 05       	cpc	r23, r1
    2b92:	61 05       	cpc	r22, r1
    2b94:	08 94       	sec
    2b96:	08 95       	ret
    2b98:	e8 94       	clt
    2b9a:	bb 27       	eor	r27, r27
    2b9c:	66 27       	eor	r22, r22
    2b9e:	77 27       	eor	r23, r23
    2ba0:	cb 01       	movw	r24, r22
    2ba2:	97 f9       	bld	r25, 7
    2ba4:	08 95       	ret
    2ba6:	0b d0       	rcall	.+22     	;  0x2bbe
    2ba8:	c4 cf       	rjmp	.-120    	;  0x2b32
    2baa:	b5 df       	rcall	.-150    	;  0x2b16
    2bac:	28 f0       	brcs	.+10     	;  0x2bb8
    2bae:	ba df       	rcall	.-140    	;  0x2b24
    2bb0:	18 f0       	brcs	.+6      	;  0x2bb8
    2bb2:	95 23       	and	r25, r21
    2bb4:	09 f0       	breq	.+2      	;  0x2bb8
    2bb6:	a6 cf       	rjmp	.-180    	;  0x2b04
    2bb8:	ab cf       	rjmp	.-170    	;  0x2b10
    2bba:	11 24       	eor	r1, r1
    2bbc:	ee cf       	rjmp	.-36     	;  0x2b9a
    2bbe:	ca df       	rcall	.-108    	;  0x2b54
    2bc0:	a0 f3       	brcs	.-24     	;  0x2baa
    2bc2:	95 9f       	mul	r25, r21
    2bc4:	d1 f3       	breq	.-12     	;  0x2bba
    2bc6:	95 0f       	add	r25, r21
    2bc8:	50 e0       	ldi	r21, 0x00	; 0
    2bca:	55 1f       	adc	r21, r21
    2bcc:	62 9f       	mul	r22, r18
    2bce:	f0 01       	movw	r30, r0
    2bd0:	72 9f       	mul	r23, r18
    2bd2:	bb 27       	eor	r27, r27
    2bd4:	f0 0d       	add	r31, r0
    2bd6:	b1 1d       	adc	r27, r1
    2bd8:	63 9f       	mul	r22, r19
    2bda:	aa 27       	eor	r26, r26
    2bdc:	f0 0d       	add	r31, r0
    2bde:	b1 1d       	adc	r27, r1
    2be0:	aa 1f       	adc	r26, r26
    2be2:	64 9f       	mul	r22, r20
    2be4:	66 27       	eor	r22, r22
    2be6:	b0 0d       	add	r27, r0
    2be8:	a1 1d       	adc	r26, r1
    2bea:	66 1f       	adc	r22, r22
    2bec:	82 9f       	mul	r24, r18
    2bee:	22 27       	eor	r18, r18
    2bf0:	b0 0d       	add	r27, r0
    2bf2:	a1 1d       	adc	r26, r1
    2bf4:	62 1f       	adc	r22, r18
    2bf6:	73 9f       	mul	r23, r19
    2bf8:	b0 0d       	add	r27, r0
    2bfa:	a1 1d       	adc	r26, r1
    2bfc:	62 1f       	adc	r22, r18
    2bfe:	83 9f       	mul	r24, r19
    2c00:	a0 0d       	add	r26, r0
    2c02:	61 1d       	adc	r22, r1
    2c04:	22 1f       	adc	r18, r18
    2c06:	74 9f       	mul	r23, r20
    2c08:	33 27       	eor	r19, r19
    2c0a:	a0 0d       	add	r26, r0
    2c0c:	61 1d       	adc	r22, r1
    2c0e:	23 1f       	adc	r18, r19
    2c10:	84 9f       	mul	r24, r20
    2c12:	60 0d       	add	r22, r0
    2c14:	21 1d       	adc	r18, r1
    2c16:	82 2f       	mov	r24, r18
    2c18:	76 2f       	mov	r23, r22
    2c1a:	6a 2f       	mov	r22, r26
    2c1c:	11 24       	eor	r1, r1
    2c1e:	9f 57       	subi	r25, 0x7F	; 127
    2c20:	50 40       	sbci	r21, 0x00	; 0
    2c22:	8a f0       	brmi	.+34     	;  0x2c46
    2c24:	e1 f0       	breq	.+56     	;  0x2c5e
    2c26:	88 23       	and	r24, r24
    2c28:	4a f0       	brmi	.+18     	;  0x2c3c
    2c2a:	ee 0f       	add	r30, r30
    2c2c:	ff 1f       	adc	r31, r31
    2c2e:	bb 1f       	adc	r27, r27
    2c30:	66 1f       	adc	r22, r22
    2c32:	77 1f       	adc	r23, r23
    2c34:	88 1f       	adc	r24, r24
    2c36:	91 50       	subi	r25, 0x01	; 1
    2c38:	50 40       	sbci	r21, 0x00	; 0
    2c3a:	a9 f7       	brne	.-22     	;  0x2c26
    2c3c:	9e 3f       	cpi	r25, 0xFE	; 254
    2c3e:	51 05       	cpc	r21, r1
    2c40:	70 f0       	brcs	.+28     	;  0x2c5e
    2c42:	60 cf       	rjmp	.-320    	;  0x2b04
    2c44:	aa cf       	rjmp	.-172    	;  0x2b9a
    2c46:	5f 3f       	cpi	r21, 0xFF	; 255
    2c48:	ec f3       	brlt	.-6      	;  0x2c44
    2c4a:	98 3e       	cpi	r25, 0xE8	; 232
    2c4c:	dc f3       	brlt	.-10     	;  0x2c44
    2c4e:	86 95       	lsr	r24
    2c50:	77 95       	ror	r23
    2c52:	67 95       	ror	r22
    2c54:	b7 95       	ror	r27
    2c56:	f7 95       	ror	r31
    2c58:	e7 95       	ror	r30
    2c5a:	9f 5f       	subi	r25, 0xFF	; 255
    2c5c:	c1 f7       	brne	.-16     	;  0x2c4e
    2c5e:	fe 2b       	or	r31, r30
    2c60:	88 0f       	add	r24, r24
    2c62:	91 1d       	adc	r25, r1
    2c64:	96 95       	lsr	r25
    2c66:	87 95       	ror	r24
    2c68:	97 f9       	bld	r25, 7
    2c6a:	08 95       	ret
    2c6c:	62 9f       	mul	r22, r18
    2c6e:	d0 01       	movw	r26, r0
    2c70:	73 9f       	mul	r23, r19
    2c72:	f0 01       	movw	r30, r0
    2c74:	82 9f       	mul	r24, r18
    2c76:	e0 0d       	add	r30, r0
    2c78:	f1 1d       	adc	r31, r1
    2c7a:	64 9f       	mul	r22, r20
    2c7c:	e0 0d       	add	r30, r0
    2c7e:	f1 1d       	adc	r31, r1
    2c80:	92 9f       	mul	r25, r18
    2c82:	f0 0d       	add	r31, r0
    2c84:	83 9f       	mul	r24, r19
    2c86:	f0 0d       	add	r31, r0
    2c88:	74 9f       	mul	r23, r20
    2c8a:	f0 0d       	add	r31, r0
    2c8c:	65 9f       	mul	r22, r21
    2c8e:	f0 0d       	add	r31, r0
    2c90:	99 27       	eor	r25, r25
    2c92:	72 9f       	mul	r23, r18
    2c94:	b0 0d       	add	r27, r0
    2c96:	e1 1d       	adc	r30, r1
    2c98:	f9 1f       	adc	r31, r25
    2c9a:	63 9f       	mul	r22, r19
    2c9c:	b0 0d       	add	r27, r0
    2c9e:	e1 1d       	adc	r30, r1
    2ca0:	f9 1f       	adc	r31, r25
    2ca2:	bd 01       	movw	r22, r26
    2ca4:	cf 01       	movw	r24, r30
    2ca6:	11 24       	eor	r1, r1
    2ca8:	08 95       	ret
    2caa:	97 fb       	bst	r25, 7
    2cac:	09 2e       	mov	r0, r25
    2cae:	07 26       	eor	r0, r23
    2cb0:	0a d0       	rcall	.+20     	;  0x2cc6
    2cb2:	77 fd       	sbrc	r23, 7
    2cb4:	04 d0       	rcall	.+8      	;  0x2cbe
    2cb6:	2e d0       	rcall	.+92     	;  0x2d14
    2cb8:	06 d0       	rcall	.+12     	;  0x2cc6
    2cba:	00 20       	and	r0, r0
    2cbc:	1a f4       	brpl	.+6      	;  0x2cc4
    2cbe:	70 95       	com	r23
    2cc0:	61 95       	neg	r22
    2cc2:	7f 4f       	sbci	r23, 0xFF	; 255
    2cc4:	08 95       	ret
    2cc6:	f6 f7       	brtc	.-4      	;  0x2cc4
    2cc8:	90 95       	com	r25
    2cca:	81 95       	neg	r24
    2ccc:	9f 4f       	sbci	r25, 0xFF	; 255
    2cce:	08 95       	ret
    2cd0:	a1 e2       	ldi	r26, 0x21	; 33
    2cd2:	1a 2e       	mov	r1, r26
    2cd4:	aa 1b       	sub	r26, r26
    2cd6:	bb 1b       	sub	r27, r27
    2cd8:	fd 01       	movw	r30, r26
    2cda:	0d c0       	rjmp	.+26     	;  0x2cf6
    2cdc:	aa 1f       	adc	r26, r26
    2cde:	bb 1f       	adc	r27, r27
    2ce0:	ee 1f       	adc	r30, r30
    2ce2:	ff 1f       	adc	r31, r31
    2ce4:	a2 17       	cp	r26, r18
    2ce6:	b3 07       	cpc	r27, r19
    2ce8:	e4 07       	cpc	r30, r20
    2cea:	f5 07       	cpc	r31, r21
    2cec:	20 f0       	brcs	.+8      	;  0x2cf6
    2cee:	a2 1b       	sub	r26, r18
    2cf0:	b3 0b       	sbc	r27, r19
    2cf2:	e4 0b       	sbc	r30, r20
    2cf4:	f5 0b       	sbc	r31, r21
    2cf6:	66 1f       	adc	r22, r22
    2cf8:	77 1f       	adc	r23, r23
    2cfa:	88 1f       	adc	r24, r24
    2cfc:	99 1f       	adc	r25, r25
    2cfe:	1a 94       	dec	r1
    2d00:	69 f7       	brne	.-38     	;  0x2cdc
    2d02:	60 95       	com	r22
    2d04:	70 95       	com	r23
    2d06:	80 95       	com	r24
    2d08:	90 95       	com	r25
    2d0a:	9b 01       	movw	r18, r22
    2d0c:	ac 01       	movw	r20, r24
    2d0e:	bd 01       	movw	r22, r26
    2d10:	cf 01       	movw	r24, r30
    2d12:	08 95       	ret
    2d14:	aa 1b       	sub	r26, r26
    2d16:	bb 1b       	sub	r27, r27
    2d18:	51 e1       	ldi	r21, 0x11	; 17
    2d1a:	07 c0       	rjmp	.+14     	;  0x2d2a
    2d1c:	aa 1f       	adc	r26, r26
    2d1e:	bb 1f       	adc	r27, r27
    2d20:	a6 17       	cp	r26, r22
    2d22:	b7 07       	cpc	r27, r23
    2d24:	10 f0       	brcs	.+4      	;  0x2d2a
    2d26:	a6 1b       	sub	r26, r22
    2d28:	b7 0b       	sbc	r27, r23
    2d2a:	88 1f       	adc	r24, r24
    2d2c:	99 1f       	adc	r25, r25
    2d2e:	5a 95       	dec	r21
    2d30:	a9 f7       	brne	.-22     	;  0x2d1c
    2d32:	80 95       	com	r24
    2d34:	90 95       	com	r25
    2d36:	bc 01       	movw	r22, r24
    2d38:	cd 01       	movw	r24, r26
    2d3a:	08 95       	ret
    2d3c:	ee 0f       	add	r30, r30
    2d3e:	ff 1f       	adc	r31, r31
    2d40:	05 90       	lpm	r0, Z+
    2d42:	f4 91       	lpm	r31, Z+
    2d44:	e0 2d       	mov	r30, r0
    2d46:	09 94       	ijmp
    2d48:	2f 92       	push	r2
    2d4a:	3f 92       	push	r3
    2d4c:	4f 92       	push	r4
    2d4e:	5f 92       	push	r5
    2d50:	6f 92       	push	r6
    2d52:	7f 92       	push	r7
    2d54:	8f 92       	push	r8
    2d56:	9f 92       	push	r9
    2d58:	af 92       	push	r10
    2d5a:	bf 92       	push	r11
    2d5c:	cf 92       	push	r12
    2d5e:	df 92       	push	r13
    2d60:	ef 92       	push	r14
    2d62:	ff 92       	push	r15
    2d64:	0f 93       	push	r16
    2d66:	1f 93       	push	r17
    2d68:	cf 93       	push	r28
    2d6a:	df 93       	push	r29
    2d6c:	cd b7       	in	r28, 0x3d	; 61
    2d6e:	de b7       	in	r29, 0x3e	; 62
    2d70:	ca 1b       	sub	r28, r26
    2d72:	db 0b       	sbc	r29, r27
    2d74:	0f b6       	in	r0, 0x3f	; 63
    2d76:	f8 94       	cli
    2d78:	de bf       	out	0x3e, r29	; 62
    2d7a:	0f be       	out	0x3f, r0	; 63
    2d7c:	cd bf       	out	0x3d, r28	; 61
    2d7e:	09 94       	ijmp
    2d80:	2a 88       	ldd	r2, Y+18	; 0x12
    2d82:	39 88       	ldd	r3, Y+17	; 0x11
    2d84:	48 88       	ldd	r4, Y+16	; 0x10
    2d86:	5f 84       	ldd	r5, Y+15	; 0x0f
    2d88:	6e 84       	ldd	r6, Y+14	; 0x0e
    2d8a:	7d 84       	ldd	r7, Y+13	; 0x0d
    2d8c:	8c 84       	ldd	r8, Y+12	; 0x0c
    2d8e:	9b 84       	ldd	r9, Y+11	; 0x0b
    2d90:	aa 84       	ldd	r10, Y+10	; 0x0a
    2d92:	b9 84       	ldd	r11, Y+9	; 0x09
    2d94:	c8 84       	ldd	r12, Y+8	; 0x08
    2d96:	df 80       	ldd	r13, Y+7	; 0x07
    2d98:	ee 80       	ldd	r14, Y+6	; 0x06
    2d9a:	fd 80       	ldd	r15, Y+5	; 0x05
    2d9c:	0c 81       	ldd	r16, Y+4	; 0x04
    2d9e:	1b 81       	ldd	r17, Y+3	; 0x03
    2da0:	aa 81       	ldd	r26, Y+2	; 0x02
    2da2:	b9 81       	ldd	r27, Y+1	; 0x01
    2da4:	ce 0f       	add	r28, r30
    2da6:	d1 1d       	adc	r29, r1
    2da8:	0f b6       	in	r0, 0x3f	; 63
    2daa:	f8 94       	cli
    2dac:	de bf       	out	0x3e, r29	; 62
    2dae:	0f be       	out	0x3f, r0	; 63
    2db0:	cd bf       	out	0x3d, r28	; 61
    2db2:	ed 01       	movw	r28, r26
    2db4:	08 95       	ret
    2db6:	f8 94       	cli
    2db8:	ff cf       	rjmp	.-2      	;  0x2db8
